
kernel/printk/printk.o:     file format elf64-x86-64


Disassembly of section .text:

0000000000000000 <lbr_printf>:
       0:	83 3c 25 00 00 00 00 	cmpl   $0x0,0x0
       7:	00 
       8:	74 17                	je     21 <lbr_printf+0x21>
       a:	55                   	push   %rbp
       b:	48 89 e5             	mov    %rsp,%rbp
       e:	48 8b 77 08          	mov    0x8(%rdi),%rsi
      12:	48 c7 c7 00 00 00 00 	mov    $0x0,%rdi
      19:	31 c0                	xor    %eax,%eax
      1b:	e8 00 00 00 00       	callq  20 <lbr_printf+0x20>
      20:	5d                   	pop    %rbp
      21:	c3                   	retq   
      22:	0f 1f 40 00          	nopl   0x0(%rax)
      26:	66 2e 0f 1f 84 00 00 	nopw   %cs:0x0(%rax,%rax,1)
      2d:	00 00 00 

0000000000000030 <lbr_printk>:
      30:	55                   	push   %rbp
      31:	48 89 e5             	mov    %rsp,%rbp
      34:	53                   	push   %rbx
      35:	48 83 ec 48          	sub    $0x48,%rsp
      39:	4c 89 4d d8          	mov    %r9,-0x28(%rbp)
      3d:	4c 89 45 d0          	mov    %r8,-0x30(%rbp)
      41:	48 89 4d c8          	mov    %rcx,-0x38(%rbp)
      45:	48 89 55 c0          	mov    %rdx,-0x40(%rbp)
      49:	48 89 75 b8          	mov    %rsi,-0x48(%rbp)
      4d:	48 8d 45 b0          	lea    -0x50(%rbp),%rax
      51:	48 89 45 f0          	mov    %rax,-0x10(%rbp)
      55:	48 8d 45 10          	lea    0x10(%rbp),%rax
      59:	48 89 45 e8          	mov    %rax,-0x18(%rbp)
      5d:	c7 45 e4 30 00 00 00 	movl   $0x30,-0x1c(%rbp)
      64:	c7 45 e0 08 00 00 00 	movl   $0x8,-0x20(%rbp)
      6b:	48 c7 c0 00 00 00 00 	mov    $0x0,%rax
      72:	65 48 03 04 25 00 00 	add    %gs:0x0,%rax
      79:	00 00 
      7b:	8b 08                	mov    (%rax),%ecx
      7d:	83 f9 1a             	cmp    $0x1a,%ecx
      80:	7c 5b                	jl     dd <lbr_printk+0xad>
      82:	c7 00 00 00 00 00    	movl   $0x0,(%rax)
      88:	48 c7 c0 00 00 00 00 	mov    $0x0,%rax
      8f:	65 48 03 04 25 00 00 	add    %gs:0x0,%rax
      96:	00 00 
      98:	8b 00                	mov    (%rax),%eax
      9a:	83 f8 00             	cmp    $0x0,%eax
      9d:	75 42                	jne    e1 <lbr_printk+0xb1>
      9f:	48 c7 c3 00 00 00 00 	mov    $0x0,%rbx
      a6:	48 c7 c1 00 00 00 00 	mov    $0x0,%rcx
      ad:	65 48 03 0c 25 00 00 	add    %gs:0x0,%rcx
      b4:	00 00 
      b6:	83 39 00             	cmpl   $0x0,(%rcx)
      b9:	75 20                	jne    db <lbr_printk+0xab>
      bb:	c7 01 01 00 00 00    	movl   $0x1,(%rcx)
      c1:	65 48 8b 04 25 00 00 	mov    %gs:0x0,%rax
      c8:	00 00 
      ca:	48 8d 75 e0          	lea    -0x20(%rbp),%rsi
      ce:	ff d0                	callq  *%rax
      d0:	65 48 03 1c 25 00 00 	add    %gs:0x0,%rbx
      d7:	00 00 
      d9:	ff 0b                	decl   (%rbx)
      db:	eb 04                	jmp    e1 <lbr_printk+0xb1>
      dd:	ff c1                	inc    %ecx
      df:	89 08                	mov    %ecx,(%rax)
      e1:	48 83 c4 48          	add    $0x48,%rsp
      e5:	5b                   	pop    %rbx
      e6:	5d                   	pop    %rbp
      e7:	c3                   	retq   
      e8:	0f 1f 84 00 00 00 00 	nopl   0x0(%rax,%rax,1)
      ef:	00 

00000000000000f0 <lbr_epilogue>:
      f0:	55                   	push   %rbp
      f1:	48 89 e5             	mov    %rsp,%rbp
      f4:	53                   	push   %rbx
      f5:	50                   	push   %rax
      f6:	48 89 fb             	mov    %rdi,%rbx
      f9:	e8 00 00 00 00       	callq  fe <lbr_epilogue+0xe>
      fe:	48 ff 43 08          	incq   0x8(%rbx)
     102:	48 ff 4b 08          	decq   0x8(%rbx)
     106:	90                   	nop
     107:	90                   	nop
     108:	90                   	nop
     109:	90                   	nop
     10a:	48 83 c4 08          	add    $0x8,%rsp
     10e:	5b                   	pop    %rbx
     10f:	5d                   	pop    %rbp
     110:	c3                   	retq   
     111:	0f 1f 44 00 00       	nopl   0x0(%rax,%rax,1)
     116:	66 2e 0f 1f 84 00 00 	nopw   %cs:0x0(%rax,%rax,1)
     11d:	00 00 00 

0000000000000120 <log_buf_addr_get>:
     120:	55                   	push   %rbp
     121:	48 89 e5             	mov    %rsp,%rbp
     124:	53                   	push   %rbx
     125:	50                   	push   %rax
     126:	48 8b 1c 25 00 00 00 	mov    0x0,%rbx
     12d:	00 
     12e:	48 89 ef             	mov    %rbp,%rdi
     131:	e8 00 00 00 00       	callq  136 <log_buf_addr_get+0x16>
     136:	48 ff 45 08          	incq   0x8(%rbp)
     13a:	48 ff 4d 08          	decq   0x8(%rbp)
     13e:	90                   	nop
     13f:	90                   	nop
     140:	90                   	nop
     141:	90                   	nop
     142:	48 89 d8             	mov    %rbx,%rax
     145:	48 83 c4 08          	add    $0x8,%rsp
     149:	5b                   	pop    %rbx
     14a:	5d                   	pop    %rbp
     14b:	c3                   	retq   
     14c:	0f 1f 40 00          	nopl   0x0(%rax)

0000000000000150 <log_buf_len_get>:
     150:	55                   	push   %rbp
     151:	48 89 e5             	mov    %rsp,%rbp
     154:	53                   	push   %rbx
     155:	50                   	push   %rax
     156:	8b 1c 25 00 00 00 00 	mov    0x0,%ebx
     15d:	48 89 ef             	mov    %rbp,%rdi
     160:	e8 00 00 00 00       	callq  165 <log_buf_len_get+0x15>
     165:	48 ff 45 08          	incq   0x8(%rbp)
     169:	48 ff 4d 08          	decq   0x8(%rbp)
     16d:	90                   	nop
     16e:	90                   	nop
     16f:	90                   	nop
     170:	90                   	nop
     171:	89 d8                	mov    %ebx,%eax
     173:	48 83 c4 08          	add    $0x8,%rsp
     177:	5b                   	pop    %rbx
     178:	5d                   	pop    %rbp
     179:	c3                   	retq   
     17a:	66 0f 1f 44 00 00    	nopw   0x0(%rax,%rax,1)

0000000000000180 <check_syslog_permissions>:
     180:	55                   	push   %rbp
     181:	48 89 e5             	mov    %rsp,%rbp
     184:	41 56                	push   %r14
     186:	53                   	push   %rbx
     187:	41 89 fe             	mov    %edi,%r14d
     18a:	41 83 fe 01          	cmp    $0x1,%r14d
     18e:	74 05                	je     195 <check_syslog_permissions+0x15>
     190:	83 fe 01             	cmp    $0x1,%esi
     193:	74 70                	je     205 <check_syslog_permissions+0x85>
     195:	83 3c 25 00 00 00 00 	cmpl   $0x0,0x0
     19c:	00 
     19d:	74 5a                	je     1f9 <check_syslog_permissions+0x79>
     19f:	bf 22 00 00 00       	mov    $0x22,%edi
     1a4:	e8 00 00 00 00       	callq  1a9 <check_syslog_permissions+0x29>
     1a9:	84 c0                	test   %al,%al
     1ab:	75 58                	jne    205 <check_syslog_permissions+0x85>
     1ad:	bf 15 00 00 00       	mov    $0x15,%edi
     1b2:	e8 00 00 00 00       	callq  1b7 <check_syslog_permissions+0x37>
     1b7:	bb ff ff ff ff       	mov    $0xffffffff,%ebx
     1bc:	84 c0                	test   %al,%al
     1be:	74 4f                	je     20f <check_syslog_permissions+0x8f>
     1c0:	8a 04 25 00 00 00 00 	mov    0x0,%al
     1c7:	84 c0                	test   %al,%al
     1c9:	75 3a                	jne    205 <check_syslog_permissions+0x85>
     1cb:	c6 04 25 00 00 00 00 	movb   $0x1,0x0
     1d2:	01 
     1d3:	65 48 8b 34 25 00 00 	mov    %gs:0x0,%rsi
     1da:	00 00 
     1dc:	8b 96 00 04 00 00    	mov    0x400(%rsi),%edx
     1e2:	48 81 c6 a8 05 00 00 	add    $0x5a8,%rsi
     1e9:	48 c7 c7 00 00 00 00 	mov    $0x0,%rdi
     1f0:	31 c0                	xor    %eax,%eax
     1f2:	e8 00 00 00 00       	callq  1f7 <check_syslog_permissions+0x77>
     1f7:	eb 0c                	jmp    205 <check_syslog_permissions+0x85>
     1f9:	41 83 fe 03          	cmp    $0x3,%r14d
     1fd:	74 06                	je     205 <check_syslog_permissions+0x85>
     1ff:	41 83 fe 0a          	cmp    $0xa,%r14d
     203:	75 9a                	jne    19f <check_syslog_permissions+0x1f>
     205:	44 89 f7             	mov    %r14d,%edi
     208:	e8 00 00 00 00       	callq  20d <check_syslog_permissions+0x8d>
     20d:	89 c3                	mov    %eax,%ebx
     20f:	48 89 ef             	mov    %rbp,%rdi
     212:	e8 00 00 00 00       	callq  217 <check_syslog_permissions+0x97>
     217:	48 ff 45 08          	incq   0x8(%rbp)
     21b:	48 ff 4d 08          	decq   0x8(%rbp)
     21f:	90                   	nop
     220:	90                   	nop
     221:	90                   	nop
     222:	90                   	nop
     223:	89 d8                	mov    %ebx,%eax
     225:	5b                   	pop    %rbx
     226:	41 5e                	pop    %r14
     228:	5d                   	pop    %rbp
     229:	c3                   	retq   
     22a:	66 0f 1f 44 00 00    	nopw   0x0(%rax,%rax,1)

0000000000000230 <printk>:
     230:	55                   	push   %rbp
     231:	48 89 e5             	mov    %rsp,%rbp
     234:	53                   	push   %rbx
     235:	48 83 ec 48          	sub    $0x48,%rsp
     239:	4c 89 4d d8          	mov    %r9,-0x28(%rbp)
     23d:	4c 89 45 d0          	mov    %r8,-0x30(%rbp)
     241:	48 89 4d c8          	mov    %rcx,-0x38(%rbp)
     245:	48 89 55 c0          	mov    %rdx,-0x40(%rbp)
     249:	48 89 75 b8          	mov    %rsi,-0x48(%rbp)
     24d:	48 8d 45 b0          	lea    -0x50(%rbp),%rax
     251:	48 89 45 f0          	mov    %rax,-0x10(%rbp)
     255:	48 8d 45 10          	lea    0x10(%rbp),%rax
     259:	48 89 45 e8          	mov    %rax,-0x18(%rbp)
     25d:	c7 45 e4 30 00 00 00 	movl   $0x30,-0x1c(%rbp)
     264:	c7 45 e0 08 00 00 00 	movl   $0x8,-0x20(%rbp)
     26b:	48 c7 c3 00 00 00 00 	mov    $0x0,%rbx
     272:	48 c7 c0 00 00 00 00 	mov    $0x0,%rax
     279:	65 48 03 04 25 00 00 	add    %gs:0x0,%rax
     280:	00 00 
     282:	ff 00                	incl   (%rax)
     284:	65 48 8b 04 25 00 00 	mov    %gs:0x0,%rax
     28b:	00 00 
     28d:	48 8d 75 e0          	lea    -0x20(%rbp),%rsi
     291:	ff d0                	callq  *%rax
     293:	65 48 03 1c 25 00 00 	add    %gs:0x0,%rbx
     29a:	00 00 
     29c:	ff 0b                	decl   (%rbx)
     29e:	48 c7 c1 00 00 00 00 	mov    $0x0,%rcx
     2a5:	65 48 03 0c 25 00 00 	add    %gs:0x0,%rcx
     2ac:	00 00 
     2ae:	ff 01                	incl   (%rcx)
     2b0:	ff 04 25 00 00 00 00 	incl   0x0
     2b7:	48 83 c4 48          	add    $0x48,%rsp
     2bb:	5b                   	pop    %rbx
     2bc:	5d                   	pop    %rbp
     2bd:	c3                   	retq   
     2be:	66 90                	xchg   %ax,%ax

00000000000002c0 <devkmsg_llseek>:
     2c0:	55                   	push   %rbp
     2c1:	48 89 e5             	mov    %rsp,%rbp
     2c4:	41 57                	push   %r15
     2c6:	41 56                	push   %r14
     2c8:	53                   	push   %rbx
     2c9:	50                   	push   %rax
     2ca:	41 89 d6             	mov    %edx,%r14d
     2cd:	4c 8b bf d0 00 00 00 	mov    0xd0(%rdi),%r15
     2d4:	4d 85 ff             	test   %r15,%r15
     2d7:	74 40                	je     319 <devkmsg_llseek+0x59>
     2d9:	48 c7 c3 e3 ff ff ff 	mov    $0xffffffffffffffe3,%rbx
     2e0:	48 85 f6             	test   %rsi,%rsi
     2e3:	75 72                	jne    357 <devkmsg_llseek+0x97>
     2e5:	48 c7 c7 00 00 00 00 	mov    $0x0,%rdi
     2ec:	e8 00 00 00 00       	callq  2f1 <devkmsg_llseek+0x31>
     2f1:	41 83 fe 03          	cmp    $0x3,%r14d
     2f5:	74 2b                	je     322 <devkmsg_llseek+0x62>
     2f7:	41 83 fe 02          	cmp    $0x2,%r14d
     2fb:	74 35                	je     332 <devkmsg_llseek+0x72>
     2fd:	48 c7 c3 ea ff ff ff 	mov    $0xffffffffffffffea,%rbx
     304:	45 85 f6             	test   %r14d,%r14d
     307:	75 45                	jne    34e <devkmsg_llseek+0x8e>
     309:	48 c7 c0 00 00 00 00 	mov    $0x0,%rax
     310:	48 c7 c1 00 00 00 00 	mov    $0x0,%rcx
     317:	eb 27                	jmp    340 <devkmsg_llseek+0x80>
     319:	48 c7 c3 f7 ff ff ff 	mov    $0xfffffffffffffff7,%rbx
     320:	eb 35                	jmp    357 <devkmsg_llseek+0x97>
     322:	48 c7 c0 00 00 00 00 	mov    $0x0,%rax
     329:	48 c7 c1 00 00 00 00 	mov    $0x0,%rcx
     330:	eb 0e                	jmp    340 <devkmsg_llseek+0x80>
     332:	48 c7 c0 00 00 00 00 	mov    $0x0,%rax
     339:	48 c7 c1 00 00 00 00 	mov    $0x0,%rcx
     340:	8b 09                	mov    (%rcx),%ecx
     342:	41 89 4f 08          	mov    %ecx,0x8(%r15)
     346:	48 8b 00             	mov    (%rax),%rax
     349:	49 89 07             	mov    %rax,(%r15)
     34c:	31 db                	xor    %ebx,%ebx
     34e:	c6 04 25 00 00 00 00 	movb   $0x0,0x0
     355:	00 
     356:	fb                   	sti    
     357:	48 89 ef             	mov    %rbp,%rdi
     35a:	e8 00 00 00 00       	callq  35f <devkmsg_llseek+0x9f>
     35f:	48 ff 45 08          	incq   0x8(%rbp)
     363:	48 ff 4d 08          	decq   0x8(%rbp)
     367:	90                   	nop
     368:	90                   	nop
     369:	90                   	nop
     36a:	90                   	nop
     36b:	48 89 d8             	mov    %rbx,%rax
     36e:	48 83 c4 08          	add    $0x8,%rsp
     372:	5b                   	pop    %rbx
     373:	41 5e                	pop    %r14
     375:	41 5f                	pop    %r15
     377:	5d                   	pop    %rbp
     378:	c3                   	retq   
     379:	0f 1f 80 00 00 00 00 	nopl   0x0(%rax)

0000000000000380 <devkmsg_read>:
     380:	55                   	push   %rbp
     381:	48 89 e5             	mov    %rsp,%rbp
     384:	41 57                	push   %r15
     386:	41 56                	push   %r14
     388:	41 55                	push   %r13
     38a:	41 54                	push   %r12
     38c:	53                   	push   %rbx
     38d:	48 83 ec 48          	sub    $0x48,%rsp
     391:	49 89 d5             	mov    %rdx,%r13
     394:	49 89 f6             	mov    %rsi,%r14
     397:	49 89 fc             	mov    %rdi,%r12
     39a:	4d 8b bc 24 d0 00 00 	mov    0xd0(%r12),%r15
     3a1:	00 
     3a2:	4d 85 ff             	test   %r15,%r15
     3a5:	74 18                	je     3bf <devkmsg_read+0x3f>
     3a7:	49 8d 5f 10          	lea    0x10(%r15),%rbx
     3ab:	48 89 df             	mov    %rbx,%rdi
     3ae:	e8 00 00 00 00       	callq  3b3 <devkmsg_read+0x33>
     3b3:	85 c0                	test   %eax,%eax
     3b5:	74 14                	je     3cb <devkmsg_read+0x4b>
     3b7:	4c 63 e0             	movslq %eax,%r12
     3ba:	e9 61 02 00 00       	jmpq   620 <devkmsg_read+0x2a0>
     3bf:	49 c7 c4 f7 ff ff ff 	mov    $0xfffffffffffffff7,%r12
     3c6:	e9 55 02 00 00       	jmpq   620 <devkmsg_read+0x2a0>
     3cb:	4c 89 6d c0          	mov    %r13,-0x40(%rbp)
     3cf:	4c 89 75 c8          	mov    %r14,-0x38(%rbp)
     3d3:	48 89 5d d0          	mov    %rbx,-0x30(%rbp)
     3d7:	48 c7 c7 00 00 00 00 	mov    $0x0,%rdi
     3de:	e8 00 00 00 00       	callq  3e3 <devkmsg_read+0x63>
     3e3:	4d 8b 07             	mov    (%r15),%r8
     3e6:	4c 3b 04 25 00 00 00 	cmp    0x0,%r8
     3ed:	00 
     3ee:	0f 85 b4 00 00 00    	jne    4a8 <devkmsg_read+0x128>
     3f4:	4c 8d 6d b0          	lea    -0x50(%rbp),%r13
     3f8:	48 8d 5d 98          	lea    -0x68(%rbp),%rbx
     3fc:	0f 1f 40 00          	nopl   0x0(%rax)
     400:	41 8b 44 24 40       	mov    0x40(%r12),%eax
     405:	c6 04 25 00 00 00 00 	movb   $0x0,0x0
     40c:	00 
     40d:	fb                   	sti    
     40e:	f6 c4 08             	test   $0x8,%ah
     411:	0f 85 ad 01 00 00    	jne    5c4 <devkmsg_read+0x244>
     417:	e8 00 00 00 00       	callq  41c <devkmsg_read+0x9c>
     41c:	49 8b 07             	mov    (%r15),%rax
     41f:	48 3b 04 25 00 00 00 	cmp    0x0,%rax
     426:	00 
     427:	75 62                	jne    48b <devkmsg_read+0x10b>
     429:	4c 89 6d b0          	mov    %r13,-0x50(%rbp)
     42d:	4c 89 6d b8          	mov    %r13,-0x48(%rbp)
     431:	c7 45 98 00 00 00 00 	movl   $0x0,-0x68(%rbp)
     438:	eb 0b                	jmp    445 <devkmsg_read+0xc5>
     43a:	66 0f 1f 44 00 00    	nopw   0x0(%rax,%rax,1)
     440:	e8 00 00 00 00       	callq  445 <devkmsg_read+0xc5>
     445:	48 c7 c7 00 00 00 00 	mov    $0x0,%rdi
     44c:	ba 01 00 00 00       	mov    $0x1,%edx
     451:	48 89 de             	mov    %rbx,%rsi
     454:	e8 00 00 00 00       	callq  459 <devkmsg_read+0xd9>
     459:	49 89 c6             	mov    %rax,%r14
     45c:	49 8b 07             	mov    (%r15),%rax
     45f:	48 3b 04 25 00 00 00 	cmp    0x0,%rax
     466:	00 
     467:	75 07                	jne    470 <devkmsg_read+0xf0>
     469:	4d 85 f6             	test   %r14,%r14
     46c:	74 d2                	je     440 <devkmsg_read+0xc0>
     46e:	eb 03                	jmp    473 <devkmsg_read+0xf3>
     470:	45 31 f6             	xor    %r14d,%r14d
     473:	48 c7 c7 00 00 00 00 	mov    $0x0,%rdi
     47a:	48 89 de             	mov    %rbx,%rsi
     47d:	e8 00 00 00 00       	callq  482 <devkmsg_read+0x102>
     482:	45 85 f6             	test   %r14d,%r14d
     485:	0f 85 86 01 00 00    	jne    611 <devkmsg_read+0x291>
     48b:	48 c7 c7 00 00 00 00 	mov    $0x0,%rdi
     492:	e8 00 00 00 00       	callq  497 <devkmsg_read+0x117>
     497:	4d 8b 07             	mov    (%r15),%r8
     49a:	4c 3b 04 25 00 00 00 	cmp    0x0,%r8
     4a1:	00 
     4a2:	0f 84 58 ff ff ff    	je     400 <devkmsg_read+0x80>
     4a8:	48 8b 04 25 00 00 00 	mov    0x0,%rax
     4af:	00 
     4b0:	49 39 c0             	cmp    %rax,%r8
     4b3:	73 23                	jae    4d8 <devkmsg_read+0x158>
     4b5:	8b 0c 25 00 00 00 00 	mov    0x0,%ecx
     4bc:	41 89 4f 08          	mov    %ecx,0x8(%r15)
     4c0:	49 89 07             	mov    %rax,(%r15)
     4c3:	c6 04 25 00 00 00 00 	movb   $0x0,0x0
     4ca:	00 
     4cb:	fb                   	sti    
     4cc:	49 c7 c4 e0 ff ff ff 	mov    $0xffffffffffffffe0,%r12
     4d3:	e9 3c 01 00 00       	jmpq   614 <devkmsg_read+0x294>
     4d8:	48 8b 04 25 00 00 00 	mov    0x0,%rax
     4df:	00 
     4e0:	41 8b 57 08          	mov    0x8(%r15),%edx
     4e4:	41 8b 4f 0c          	mov    0xc(%r15),%ecx
     4e8:	48 8d 1c 10          	lea    (%rax,%rdx,1),%rbx
     4ec:	66 83 7c 10 08 00    	cmpw   $0x0,0x8(%rax,%rdx,1)
     4f2:	48 0f 44 d8          	cmove  %rax,%rbx
     4f6:	49 8d 7f 38          	lea    0x38(%r15),%rdi
     4fa:	48 8b 03             	mov    (%rbx),%rax
     4fd:	48 c1 e8 03          	shr    $0x3,%rax
     501:	48 ba cf f7 53 e3 a5 	movabs $0x20c49ba5e353f7cf,%rdx
     508:	9b c4 20 
     50b:	48 f7 e2             	mul    %rdx
     50e:	49 89 d1             	mov    %rdx,%r9
     511:	49 c1 e9 04          	shr    $0x4,%r9
     515:	8a 43 0f             	mov    0xf(%rbx),%al
     518:	83 e1 08             	and    $0x8,%ecx
     51b:	75 0c                	jne    529 <devkmsg_read+0x1a9>
     51d:	89 c2                	mov    %eax,%edx
     51f:	80 e2 08             	and    $0x8,%dl
     522:	be 63 00 00 00       	mov    $0x63,%esi
     527:	75 20                	jne    549 <devkmsg_read+0x1c9>
     529:	89 c2                	mov    %eax,%edx
     52b:	80 e2 1f             	and    $0x1f,%dl
     52e:	f6 c2 08             	test   $0x8,%dl
     531:	75 11                	jne    544 <devkmsg_read+0x1c4>
     533:	be 2d 00 00 00       	mov    $0x2d,%esi
     538:	85 c9                	test   %ecx,%ecx
     53a:	74 0d                	je     549 <devkmsg_read+0x1c9>
     53c:	0f b6 ca             	movzbl %dl,%ecx
     53f:	83 e1 04             	and    $0x4,%ecx
     542:	75 05                	jne    549 <devkmsg_read+0x1c9>
     544:	be 2b 00 00 00       	mov    $0x2b,%esi
     549:	0f b6 4b 0e          	movzbl 0xe(%rbx),%ecx
     54d:	c0 e8 05             	shr    $0x5,%al
     550:	0f b6 c0             	movzbl %al,%eax
     553:	8d 0c c8             	lea    (%rax,%rcx,8),%ecx
     556:	89 34 24             	mov    %esi,(%rsp)
     559:	41 be 00 20 00 00    	mov    $0x2000,%r14d
     55f:	be 00 20 00 00       	mov    $0x2000,%esi
     564:	48 c7 c2 00 00 00 00 	mov    $0x0,%rdx
     56b:	31 c0                	xor    %eax,%eax
     56d:	49 89 fd             	mov    %rdi,%r13
     570:	e8 00 00 00 00       	callq  575 <devkmsg_read+0x1f5>
     575:	4c 63 e0             	movslq %eax,%r12
     578:	4b 8d 7c 27 38       	lea    0x38(%r15,%r12,1),%rdi
     57d:	4d 29 e6             	sub    %r12,%r14
     580:	4c 8d 43 10          	lea    0x10(%rbx),%r8
     584:	44 0f b7 4b 0a       	movzwl 0xa(%rbx),%r9d
     589:	4a 8d 54 0b 10       	lea    0x10(%rbx,%r9,1),%rdx
     58e:	0f b7 4b 0c          	movzwl 0xc(%rbx),%ecx
     592:	4c 89 f6             	mov    %r14,%rsi
     595:	e8 26 29 00 00       	callq  2ec0 <msg_print_ext_body>
     59a:	49 89 c6             	mov    %rax,%r14
     59d:	4d 01 e6             	add    %r12,%r14
     5a0:	0f b6 43 0f          	movzbl 0xf(%rbx),%eax
     5a4:	83 e0 1f             	and    $0x1f,%eax
     5a7:	41 89 47 0c          	mov    %eax,0xc(%r15)
     5ab:	41 8b 4f 08          	mov    0x8(%r15),%ecx
     5af:	48 8b 14 25 00 00 00 	mov    0x0,%rdx
     5b6:	00 
     5b7:	0f b7 44 0a 08       	movzwl 0x8(%rdx,%rcx,1),%eax
     5bc:	85 c0                	test   %eax,%eax
     5be:	74 0d                	je     5cd <devkmsg_read+0x24d>
     5c0:	01 c8                	add    %ecx,%eax
     5c2:	eb 0d                	jmp    5d1 <devkmsg_read+0x251>
     5c4:	49 c7 c4 f5 ff ff ff 	mov    $0xfffffffffffffff5,%r12
     5cb:	eb 47                	jmp    614 <devkmsg_read+0x294>
     5cd:	0f b7 42 08          	movzwl 0x8(%rdx),%eax
     5d1:	48 8b 5d d0          	mov    -0x30(%rbp),%rbx
     5d5:	41 89 47 08          	mov    %eax,0x8(%r15)
     5d9:	49 ff 07             	incq   (%r15)
     5dc:	c6 04 25 00 00 00 00 	movb   $0x0,0x0
     5e3:	00 
     5e4:	fb                   	sti    
     5e5:	49 c7 c4 ea ff ff ff 	mov    $0xffffffffffffffea,%r12
     5ec:	4c 3b 75 c0          	cmp    -0x40(%rbp),%r14
     5f0:	77 26                	ja     618 <devkmsg_read+0x298>
     5f2:	48 8b 7d c8          	mov    -0x38(%rbp),%rdi
     5f6:	4c 89 ee             	mov    %r13,%rsi
     5f9:	44 89 f2             	mov    %r14d,%edx
     5fc:	e8 00 00 00 00       	callq  601 <devkmsg_read+0x281>
     601:	48 85 c0             	test   %rax,%rax
     604:	49 c7 c4 f2 ff ff ff 	mov    $0xfffffffffffffff2,%r12
     60b:	4d 0f 44 e6          	cmove  %r14,%r12
     60f:	eb 07                	jmp    618 <devkmsg_read+0x298>
     611:	4d 63 e6             	movslq %r14d,%r12
     614:	48 8b 5d d0          	mov    -0x30(%rbp),%rbx
     618:	48 89 df             	mov    %rbx,%rdi
     61b:	e8 00 00 00 00       	callq  620 <devkmsg_read+0x2a0>
     620:	48 89 ef             	mov    %rbp,%rdi
     623:	e8 00 00 00 00       	callq  628 <devkmsg_read+0x2a8>
     628:	48 ff 45 08          	incq   0x8(%rbp)
     62c:	48 ff 4d 08          	decq   0x8(%rbp)
     630:	90                   	nop
     631:	90                   	nop
     632:	90                   	nop
     633:	90                   	nop
     634:	4c 89 e0             	mov    %r12,%rax
     637:	48 83 c4 48          	add    $0x48,%rsp
     63b:	5b                   	pop    %rbx
     63c:	41 5c                	pop    %r12
     63e:	41 5d                	pop    %r13
     640:	41 5e                	pop    %r14
     642:	41 5f                	pop    %r15
     644:	5d                   	pop    %rbp
     645:	c3                   	retq   
     646:	66 2e 0f 1f 84 00 00 	nopw   %cs:0x0(%rax,%rax,1)
     64d:	00 00 00 

0000000000000650 <devkmsg_write>:
     650:	55                   	push   %rbp
     651:	48 89 e5             	mov    %rsp,%rbp
     654:	41 57                	push   %r15
     656:	41 56                	push   %r14
     658:	41 55                	push   %r13
     65a:	41 54                	push   %r12
     65c:	53                   	push   %rbx
     65d:	50                   	push   %rax
     65e:	49 89 f5             	mov    %rsi,%r13
     661:	4d 8b 65 10          	mov    0x10(%r13),%r12
     665:	48 c7 c3 ea ff ff ff 	mov    $0xffffffffffffffea,%rbx
     66c:	49 81 fc e0 03 00 00 	cmp    $0x3e0,%r12
     673:	0f 87 d7 00 00 00    	ja     750 <devkmsg_write+0x100>
     679:	44 8b 34 25 00 00 00 	mov    0x0,%r14d
     680:	00 
     681:	49 8d 7c 24 01       	lea    0x1(%r12),%rdi
     686:	be c0 00 40 02       	mov    $0x24000c0,%esi
     68b:	e8 00 00 00 00       	callq  690 <devkmsg_write+0x40>
     690:	49 89 c7             	mov    %rax,%r15
     693:	4d 85 ff             	test   %r15,%r15
     696:	74 78                	je     710 <devkmsg_write+0xc0>
     698:	43 c6 04 27 00       	movb   $0x0,(%r15,%r12,1)
     69d:	4c 89 ff             	mov    %r15,%rdi
     6a0:	4c 89 e6             	mov    %r12,%rsi
     6a3:	4c 89 ea             	mov    %r13,%rdx
     6a6:	e8 00 00 00 00       	callq  6ab <devkmsg_write+0x5b>
     6ab:	4c 39 e0             	cmp    %r12,%rax
     6ae:	75 69                	jne    719 <devkmsg_write+0xc9>
     6b0:	bf 01 00 00 00       	mov    $0x1,%edi
     6b5:	41 80 3f 3c          	cmpb   $0x3c,(%r15)
     6b9:	75 6f                	jne    72a <devkmsg_write+0xda>
     6bb:	48 c7 45 d0 00 00 00 	movq   $0x0,-0x30(%rbp)
     6c2:	00 
     6c3:	4c 89 ff             	mov    %r15,%rdi
     6c6:	48 ff c7             	inc    %rdi
     6c9:	48 8d 75 d0          	lea    -0x30(%rbp),%rsi
     6cd:	ba 0a 00 00 00       	mov    $0xa,%edx
     6d2:	e8 00 00 00 00       	callq  6d7 <devkmsg_write+0x87>
     6d7:	48 8b 4d d0          	mov    -0x30(%rbp),%rcx
     6db:	bf 01 00 00 00       	mov    $0x1,%edi
     6e0:	48 85 c9             	test   %rcx,%rcx
     6e3:	74 45                	je     72a <devkmsg_write+0xda>
     6e5:	80 39 3e             	cmpb   $0x3e,(%rcx)
     6e8:	4d 89 f9             	mov    %r15,%r9
     6eb:	75 40                	jne    72d <devkmsg_write+0xdd>
     6ed:	41 89 c6             	mov    %eax,%r14d
     6f0:	41 83 e6 07          	and    $0x7,%r14d
     6f4:	c1 e8 03             	shr    $0x3,%eax
     6f7:	25 ff 00 00 00       	and    $0xff,%eax
     6fc:	bf 01 00 00 00       	mov    $0x1,%edi
     701:	0f 45 f8             	cmovne %eax,%edi
     704:	48 ff c1             	inc    %rcx
     707:	48 89 4d d0          	mov    %rcx,-0x30(%rbp)
     70b:	49 89 c9             	mov    %rcx,%r9
     70e:	eb 1d                	jmp    72d <devkmsg_write+0xdd>
     710:	48 c7 c3 f4 ff ff ff 	mov    $0xfffffffffffffff4,%rbx
     717:	eb 37                	jmp    750 <devkmsg_write+0x100>
     719:	4c 89 ff             	mov    %r15,%rdi
     71c:	e8 00 00 00 00       	callq  721 <devkmsg_write+0xd1>
     721:	48 c7 c3 f2 ff ff ff 	mov    $0xfffffffffffffff2,%rbx
     728:	eb 26                	jmp    750 <devkmsg_write+0x100>
     72a:	4d 89 f9             	mov    %r15,%r9
     72d:	ba 00 00 00 00       	mov    $0x0,%edx
     732:	31 c9                	xor    %ecx,%ecx
     734:	49 c7 c0 00 00 00 00 	mov    $0x0,%r8
     73b:	31 c0                	xor    %eax,%eax
     73d:	44 89 f6             	mov    %r14d,%esi
     740:	e8 00 00 00 00       	callq  745 <devkmsg_write+0xf5>
     745:	4c 89 ff             	mov    %r15,%rdi
     748:	e8 00 00 00 00       	callq  74d <devkmsg_write+0xfd>
     74d:	4c 89 e3             	mov    %r12,%rbx
     750:	48 89 ef             	mov    %rbp,%rdi
     753:	e8 00 00 00 00       	callq  758 <devkmsg_write+0x108>
     758:	48 ff 45 08          	incq   0x8(%rbp)
     75c:	48 ff 4d 08          	decq   0x8(%rbp)
     760:	90                   	nop
     761:	90                   	nop
     762:	90                   	nop
     763:	90                   	nop
     764:	48 89 d8             	mov    %rbx,%rax
     767:	48 83 c4 08          	add    $0x8,%rsp
     76b:	5b                   	pop    %rbx
     76c:	41 5c                	pop    %r12
     76e:	41 5d                	pop    %r13
     770:	41 5e                	pop    %r14
     772:	41 5f                	pop    %r15
     774:	5d                   	pop    %rbp
     775:	c3                   	retq   
     776:	66 2e 0f 1f 84 00 00 	nopw   %cs:0x0(%rax,%rax,1)
     77d:	00 00 00 

0000000000000780 <devkmsg_poll>:
     780:	55                   	push   %rbp
     781:	48 89 e5             	mov    %rsp,%rbp
     784:	53                   	push   %rbx
     785:	50                   	push   %rax
     786:	48 89 f0             	mov    %rsi,%rax
     789:	48 8b 9f d0 00 00 00 	mov    0xd0(%rdi),%rbx
     790:	48 85 db             	test   %rbx,%rbx
     793:	74 54                	je     7e9 <devkmsg_poll+0x69>
     795:	48 85 c0             	test   %rax,%rax
     798:	74 14                	je     7ae <devkmsg_poll+0x2e>
     79a:	48 8b 08             	mov    (%rax),%rcx
     79d:	48 85 c9             	test   %rcx,%rcx
     7a0:	74 0c                	je     7ae <devkmsg_poll+0x2e>
     7a2:	48 c7 c6 00 00 00 00 	mov    $0x0,%rsi
     7a9:	48 89 c2             	mov    %rax,%rdx
     7ac:	ff d1                	callq  *%rcx
     7ae:	48 c7 c7 00 00 00 00 	mov    $0x0,%rdi
     7b5:	e8 00 00 00 00       	callq  7ba <devkmsg_poll+0x3a>
     7ba:	48 8b 03             	mov    (%rbx),%rax
     7bd:	31 db                	xor    %ebx,%ebx
     7bf:	48 3b 04 25 00 00 00 	cmp    0x0,%rax
     7c6:	00 
     7c7:	73 15                	jae    7de <devkmsg_poll+0x5e>
     7c9:	48 3b 04 25 00 00 00 	cmp    0x0,%rax
     7d0:	00 
     7d1:	b8 4b 00 00 00       	mov    $0x4b,%eax
     7d6:	bb 41 00 00 00       	mov    $0x41,%ebx
     7db:	0f 42 d8             	cmovb  %eax,%ebx
     7de:	c6 04 25 00 00 00 00 	movb   $0x0,0x0
     7e5:	00 
     7e6:	fb                   	sti    
     7e7:	eb 05                	jmp    7ee <devkmsg_poll+0x6e>
     7e9:	bb 28 00 00 00       	mov    $0x28,%ebx
     7ee:	48 89 ef             	mov    %rbp,%rdi
     7f1:	e8 00 00 00 00       	callq  7f6 <devkmsg_poll+0x76>
     7f6:	48 ff 45 08          	incq   0x8(%rbp)
     7fa:	48 ff 4d 08          	decq   0x8(%rbp)
     7fe:	90                   	nop
     7ff:	90                   	nop
     800:	90                   	nop
     801:	90                   	nop
     802:	89 d8                	mov    %ebx,%eax
     804:	48 83 c4 08          	add    $0x8,%rsp
     808:	5b                   	pop    %rbx
     809:	5d                   	pop    %rbp
     80a:	c3                   	retq   
     80b:	0f 1f 44 00 00       	nopl   0x0(%rax,%rax,1)

0000000000000810 <devkmsg_open>:
     810:	55                   	push   %rbp
     811:	48 89 e5             	mov    %rsp,%rbp
     814:	41 56                	push   %r14
     816:	53                   	push   %rbx
     817:	49 89 f6             	mov    %rsi,%r14
     81a:	41 8b 46 40          	mov    0x40(%r14),%eax
     81e:	83 e0 03             	and    $0x3,%eax
     821:	31 db                	xor    %ebx,%ebx
     823:	83 f8 01             	cmp    $0x1,%eax
     826:	0f 84 e1 00 00 00    	je     90d <devkmsg_open+0xfd>
     82c:	83 3c 25 00 00 00 00 	cmpl   $0x0,0x0
     833:	00 
     834:	74 5c                	je     892 <devkmsg_open+0x82>
     836:	bf 22 00 00 00       	mov    $0x22,%edi
     83b:	e8 00 00 00 00       	callq  840 <devkmsg_open+0x30>
     840:	84 c0                	test   %al,%al
     842:	75 4e                	jne    892 <devkmsg_open+0x82>
     844:	bf 15 00 00 00       	mov    $0x15,%edi
     849:	e8 00 00 00 00       	callq  84e <devkmsg_open+0x3e>
     84e:	bb ff ff ff ff       	mov    $0xffffffff,%ebx
     853:	84 c0                	test   %al,%al
     855:	0f 84 b2 00 00 00    	je     90d <devkmsg_open+0xfd>
     85b:	8a 04 25 00 00 00 00 	mov    0x0,%al
     862:	84 c0                	test   %al,%al
     864:	75 2c                	jne    892 <devkmsg_open+0x82>
     866:	c6 04 25 00 00 00 00 	movb   $0x1,0x0
     86d:	01 
     86e:	65 48 8b 34 25 00 00 	mov    %gs:0x0,%rsi
     875:	00 00 
     877:	8b 96 00 04 00 00    	mov    0x400(%rsi),%edx
     87d:	48 81 c6 a8 05 00 00 	add    $0x5a8,%rsi
     884:	48 c7 c7 00 00 00 00 	mov    $0x0,%rdi
     88b:	31 c0                	xor    %eax,%eax
     88d:	e8 00 00 00 00       	callq  892 <devkmsg_open+0x82>
     892:	bf 03 00 00 00       	mov    $0x3,%edi
     897:	e8 00 00 00 00       	callq  89c <devkmsg_open+0x8c>
     89c:	89 c3                	mov    %eax,%ebx
     89e:	85 db                	test   %ebx,%ebx
     8a0:	75 6b                	jne    90d <devkmsg_open+0xfd>
     8a2:	bf 38 20 00 00       	mov    $0x2038,%edi
     8a7:	be c0 00 40 02       	mov    $0x24000c0,%esi
     8ac:	e8 00 00 00 00       	callq  8b1 <devkmsg_open+0xa1>
     8b1:	48 89 c3             	mov    %rax,%rbx
     8b4:	48 85 db             	test   %rbx,%rbx
     8b7:	74 4f                	je     908 <devkmsg_open+0xf8>
     8b9:	48 89 df             	mov    %rbx,%rdi
     8bc:	48 83 c7 10          	add    $0x10,%rdi
     8c0:	48 c7 c6 00 00 00 00 	mov    $0x0,%rsi
     8c7:	48 c7 c2 00 00 00 00 	mov    $0x0,%rdx
     8ce:	e8 00 00 00 00       	callq  8d3 <devkmsg_open+0xc3>
     8d3:	48 c7 c7 00 00 00 00 	mov    $0x0,%rdi
     8da:	e8 00 00 00 00       	callq  8df <devkmsg_open+0xcf>
     8df:	8b 04 25 00 00 00 00 	mov    0x0,%eax
     8e6:	89 43 08             	mov    %eax,0x8(%rbx)
     8e9:	48 8b 04 25 00 00 00 	mov    0x0,%rax
     8f0:	00 
     8f1:	48 89 03             	mov    %rax,(%rbx)
     8f4:	c6 04 25 00 00 00 00 	movb   $0x0,0x0
     8fb:	00 
     8fc:	fb                   	sti    
     8fd:	49 89 9e d0 00 00 00 	mov    %rbx,0xd0(%r14)
     904:	31 db                	xor    %ebx,%ebx
     906:	eb 05                	jmp    90d <devkmsg_open+0xfd>
     908:	bb f4 ff ff ff       	mov    $0xfffffff4,%ebx
     90d:	48 89 ef             	mov    %rbp,%rdi
     910:	e8 00 00 00 00       	callq  915 <devkmsg_open+0x105>
     915:	48 ff 45 08          	incq   0x8(%rbp)
     919:	48 ff 4d 08          	decq   0x8(%rbp)
     91d:	90                   	nop
     91e:	90                   	nop
     91f:	90                   	nop
     920:	90                   	nop
     921:	89 d8                	mov    %ebx,%eax
     923:	5b                   	pop    %rbx
     924:	41 5e                	pop    %r14
     926:	5d                   	pop    %rbp
     927:	c3                   	retq   
     928:	0f 1f 84 00 00 00 00 	nopl   0x0(%rax,%rax,1)
     92f:	00 

0000000000000930 <devkmsg_release>:
     930:	55                   	push   %rbp
     931:	48 89 e5             	mov    %rsp,%rbp
     934:	48 8b be d0 00 00 00 	mov    0xd0(%rsi),%rdi
     93b:	48 85 ff             	test   %rdi,%rdi
     93e:	74 05                	je     945 <devkmsg_release+0x15>
     940:	e8 00 00 00 00       	callq  945 <devkmsg_release+0x15>
     945:	48 89 ef             	mov    %rbp,%rdi
     948:	e8 00 00 00 00       	callq  94d <devkmsg_release+0x1d>
     94d:	48 ff 45 08          	incq   0x8(%rbp)
     951:	48 ff 4d 08          	decq   0x8(%rbp)
     955:	90                   	nop
     956:	90                   	nop
     957:	90                   	nop
     958:	90                   	nop
     959:	31 c0                	xor    %eax,%eax
     95b:	5d                   	pop    %rbp
     95c:	c3                   	retq   
     95d:	0f 1f 00             	nopl   (%rax)

0000000000000960 <log_buf_kexec_setup>:
     960:	55                   	push   %rbp
     961:	48 89 e5             	mov    %rsp,%rbp
     964:	48 c7 c7 00 00 00 00 	mov    $0x0,%rdi
     96b:	48 c7 c6 00 00 00 00 	mov    $0x0,%rsi
     972:	48 c7 c2 00 00 00 00 	mov    $0x0,%rdx
     979:	31 c0                	xor    %eax,%eax
     97b:	e8 00 00 00 00       	callq  980 <log_buf_kexec_setup+0x20>
     980:	48 c7 c7 00 00 00 00 	mov    $0x0,%rdi
     987:	48 c7 c6 00 00 00 00 	mov    $0x0,%rsi
     98e:	48 c7 c2 00 00 00 00 	mov    $0x0,%rdx
     995:	31 c0                	xor    %eax,%eax
     997:	e8 00 00 00 00       	callq  99c <log_buf_kexec_setup+0x3c>
     99c:	48 c7 c7 00 00 00 00 	mov    $0x0,%rdi
     9a3:	48 c7 c6 00 00 00 00 	mov    $0x0,%rsi
     9aa:	48 c7 c2 00 00 00 00 	mov    $0x0,%rdx
     9b1:	31 c0                	xor    %eax,%eax
     9b3:	e8 00 00 00 00       	callq  9b8 <log_buf_kexec_setup+0x58>
     9b8:	48 c7 c7 00 00 00 00 	mov    $0x0,%rdi
     9bf:	48 c7 c6 00 00 00 00 	mov    $0x0,%rsi
     9c6:	48 c7 c2 00 00 00 00 	mov    $0x0,%rdx
     9cd:	31 c0                	xor    %eax,%eax
     9cf:	e8 00 00 00 00       	callq  9d4 <log_buf_kexec_setup+0x74>
     9d4:	48 c7 c7 00 00 00 00 	mov    $0x0,%rdi
     9db:	48 c7 c6 00 00 00 00 	mov    $0x0,%rsi
     9e2:	ba 10 00 00 00       	mov    $0x10,%edx
     9e7:	31 c0                	xor    %eax,%eax
     9e9:	e8 00 00 00 00       	callq  9ee <log_buf_kexec_setup+0x8e>
     9ee:	48 c7 c7 00 00 00 00 	mov    $0x0,%rdi
     9f5:	48 c7 c6 00 00 00 00 	mov    $0x0,%rsi
     9fc:	48 c7 c2 00 00 00 00 	mov    $0x0,%rdx
     a03:	31 c9                	xor    %ecx,%ecx
     a05:	31 c0                	xor    %eax,%eax
     a07:	e8 00 00 00 00       	callq  a0c <log_buf_kexec_setup+0xac>
     a0c:	48 c7 c7 00 00 00 00 	mov    $0x0,%rdi
     a13:	48 c7 c6 00 00 00 00 	mov    $0x0,%rsi
     a1a:	48 c7 c2 00 00 00 00 	mov    $0x0,%rdx
     a21:	b9 08 00 00 00       	mov    $0x8,%ecx
     a26:	31 c0                	xor    %eax,%eax
     a28:	e8 00 00 00 00       	callq  a2d <log_buf_kexec_setup+0xcd>
     a2d:	48 c7 c7 00 00 00 00 	mov    $0x0,%rdi
     a34:	48 c7 c6 00 00 00 00 	mov    $0x0,%rsi
     a3b:	48 c7 c2 00 00 00 00 	mov    $0x0,%rdx
     a42:	b9 0a 00 00 00       	mov    $0xa,%ecx
     a47:	31 c0                	xor    %eax,%eax
     a49:	e8 00 00 00 00       	callq  a4e <log_buf_kexec_setup+0xee>
     a4e:	48 c7 c7 00 00 00 00 	mov    $0x0,%rdi
     a55:	48 c7 c6 00 00 00 00 	mov    $0x0,%rsi
     a5c:	48 c7 c2 00 00 00 00 	mov    $0x0,%rdx
     a63:	b9 0c 00 00 00       	mov    $0xc,%ecx
     a68:	31 c0                	xor    %eax,%eax
     a6a:	e8 00 00 00 00       	callq  a6f <log_buf_kexec_setup+0x10f>
     a6f:	48 89 ef             	mov    %rbp,%rdi
     a72:	e8 00 00 00 00       	callq  a77 <log_buf_kexec_setup+0x117>
     a77:	48 ff 45 08          	incq   0x8(%rbp)
     a7b:	48 ff 4d 08          	decq   0x8(%rbp)
     a7f:	90                   	nop
     a80:	90                   	nop
     a81:	90                   	nop
     a82:	90                   	nop
     a83:	5d                   	pop    %rbp
     a84:	c3                   	retq   
     a85:	90                   	nop
     a86:	66 2e 0f 1f 84 00 00 	nopw   %cs:0x0(%rax,%rax,1)
     a8d:	00 00 00 

0000000000000a90 <do_syslog>:
     a90:	55                   	push   %rbp
     a91:	48 89 e5             	mov    %rsp,%rbp
     a94:	41 57                	push   %r15
     a96:	41 56                	push   %r14
     a98:	41 55                	push   %r13
     a9a:	41 54                	push   %r12
     a9c:	53                   	push   %rbx
     a9d:	48 83 ec 58          	sub    $0x58,%rsp
     aa1:	41 89 cc             	mov    %ecx,%r12d
     aa4:	41 89 d5             	mov    %edx,%r13d
     aa7:	49 89 f7             	mov    %rsi,%r15
     aaa:	89 fb                	mov    %edi,%ebx
     aac:	83 fb 01             	cmp    $0x1,%ebx
     aaf:	74 06                	je     ab7 <do_syslog+0x27>
     ab1:	41 83 fc 01          	cmp    $0x1,%r12d
     ab5:	74 6f                	je     b26 <do_syslog+0x96>
     ab7:	83 3c 25 00 00 00 00 	cmpl   $0x0,0x0
     abe:	00 
     abf:	74 5b                	je     b1c <do_syslog+0x8c>
     ac1:	bf 22 00 00 00       	mov    $0x22,%edi
     ac6:	e8 00 00 00 00       	callq  acb <do_syslog+0x3b>
     acb:	84 c0                	test   %al,%al
     acd:	75 57                	jne    b26 <do_syslog+0x96>
     acf:	bf 15 00 00 00       	mov    $0x15,%edi
     ad4:	e8 00 00 00 00       	callq  ad9 <do_syslog+0x49>
     ad9:	41 be ff ff ff ff    	mov    $0xffffffff,%r14d
     adf:	84 c0                	test   %al,%al
     ae1:	74 52                	je     b35 <do_syslog+0xa5>
     ae3:	8a 04 25 00 00 00 00 	mov    0x0,%al
     aea:	84 c0                	test   %al,%al
     aec:	75 38                	jne    b26 <do_syslog+0x96>
     aee:	c6 04 25 00 00 00 00 	movb   $0x1,0x0
     af5:	01 
     af6:	65 48 8b 34 25 00 00 	mov    %gs:0x0,%rsi
     afd:	00 00 
     aff:	8b 96 00 04 00 00    	mov    0x400(%rsi),%edx
     b05:	48 81 c6 a8 05 00 00 	add    $0x5a8,%rsi
     b0c:	48 c7 c7 00 00 00 00 	mov    $0x0,%rdi
     b13:	31 c0                	xor    %eax,%eax
     b15:	e8 00 00 00 00       	callq  b1a <do_syslog+0x8a>
     b1a:	eb 0a                	jmp    b26 <do_syslog+0x96>
     b1c:	83 fb 03             	cmp    $0x3,%ebx
     b1f:	74 05                	je     b26 <do_syslog+0x96>
     b21:	83 fb 0a             	cmp    $0xa,%ebx
     b24:	75 9b                	jne    ac1 <do_syslog+0x31>
     b26:	89 df                	mov    %ebx,%edi
     b28:	e8 00 00 00 00       	callq  b2d <do_syslog+0x9d>
     b2d:	41 89 c6             	mov    %eax,%r14d
     b30:	45 85 f6             	test   %r14d,%r14d
     b33:	74 26                	je     b5b <do_syslog+0xcb>
     b35:	48 89 ef             	mov    %rbp,%rdi
     b38:	e8 00 00 00 00       	callq  b3d <do_syslog+0xad>
     b3d:	48 ff 45 08          	incq   0x8(%rbp)
     b41:	48 ff 4d 08          	decq   0x8(%rbp)
     b45:	90                   	nop
     b46:	90                   	nop
     b47:	90                   	nop
     b48:	90                   	nop
     b49:	44 89 f0             	mov    %r14d,%eax
     b4c:	48 83 c4 58          	add    $0x58,%rsp
     b50:	5b                   	pop    %rbx
     b51:	41 5c                	pop    %r12
     b53:	41 5d                	pop    %r13
     b55:	41 5e                	pop    %r14
     b57:	41 5f                	pop    %r15
     b59:	5d                   	pop    %rbp
     b5a:	c3                   	retq   
     b5b:	83 fb 0a             	cmp    $0xa,%ebx
     b5e:	0f 87 80 02 00 00    	ja     de4 <do_syslog+0x354>
     b64:	c7 45 c0 00 00 00 00 	movl   $0x0,-0x40(%rbp)
     b6b:	89 d8                	mov    %ebx,%eax
     b6d:	45 31 f6             	xor    %r14d,%r14d
     b70:	ff 24 c5 00 00 00 00 	jmpq   *0x0(,%rax,8)
     b77:	4d 85 ff             	test   %r15,%r15
     b7a:	41 be ea ff ff ff    	mov    $0xffffffea,%r14d
     b80:	74 b3                	je     b35 <do_syslog+0xa5>
     b82:	45 85 ed             	test   %r13d,%r13d
     b85:	78 ae                	js     b35 <do_syslog+0xa5>
     b87:	41 be 00 00 00 00    	mov    $0x0,%r14d
     b8d:	74 a6                	je     b35 <do_syslog+0xa5>
     b8f:	49 63 c5             	movslq %r13d,%rax
     b92:	65 48 8b 0c 25 00 00 	mov    %gs:0x0,%rcx
     b99:	00 00 
     b9b:	41 be f2 ff ff ff    	mov    $0xfffffff2,%r14d
     ba1:	4c 01 f8             	add    %r15,%rax
     ba4:	72 8f                	jb     b35 <do_syslog+0xa5>
     ba6:	48 3b 81 18 c0 ff ff 	cmp    -0x3fe8(%rcx),%rax
     bad:	77 86                	ja     b35 <do_syslog+0xa5>
     baf:	e8 00 00 00 00       	callq  bb4 <do_syslog+0x124>
     bb4:	48 8b 04 25 00 00 00 	mov    0x0,%rax
     bbb:	00 
     bbc:	48 3b 04 25 00 00 00 	cmp    0x0,%rax
     bc3:	00 
     bc4:	0f 85 90 00 00 00    	jne    c5a <do_syslog+0x1ca>
     bca:	48 8d 45 a0          	lea    -0x60(%rbp),%rax
     bce:	48 89 45 a0          	mov    %rax,-0x60(%rbp)
     bd2:	48 89 45 a8          	mov    %rax,-0x58(%rbp)
     bd6:	c7 45 88 00 00 00 00 	movl   $0x0,-0x78(%rbp)
     bdd:	48 8d 75 88          	lea    -0x78(%rbp),%rsi
     be1:	48 c7 c7 00 00 00 00 	mov    $0x0,%rdi
     be8:	ba 01 00 00 00       	mov    $0x1,%edx
     bed:	e8 00 00 00 00       	callq  bf2 <do_syslog+0x162>
     bf2:	49 89 c6             	mov    %rax,%r14
     bf5:	48 8b 04 25 00 00 00 	mov    0x0,%rax
     bfc:	00 
     bfd:	48 3b 04 25 00 00 00 	cmp    0x0,%rax
     c04:	00 
     c05:	75 37                	jne    c3e <do_syslog+0x1ae>
     c07:	48 8d 5d 88          	lea    -0x78(%rbp),%rbx
     c0b:	4d 85 f6             	test   %r14,%r14
     c0e:	75 31                	jne    c41 <do_syslog+0x1b1>
     c10:	e8 00 00 00 00       	callq  c15 <do_syslog+0x185>
     c15:	48 c7 c7 00 00 00 00 	mov    $0x0,%rdi
     c1c:	ba 01 00 00 00       	mov    $0x1,%edx
     c21:	48 89 de             	mov    %rbx,%rsi
     c24:	e8 00 00 00 00       	callq  c29 <do_syslog+0x199>
     c29:	49 89 c6             	mov    %rax,%r14
     c2c:	48 8b 04 25 00 00 00 	mov    0x0,%rax
     c33:	00 
     c34:	48 3b 04 25 00 00 00 	cmp    0x0,%rax
     c3b:	00 
     c3c:	74 cd                	je     c0b <do_syslog+0x17b>
     c3e:	45 31 f6             	xor    %r14d,%r14d
     c41:	48 8d 75 88          	lea    -0x78(%rbp),%rsi
     c45:	48 c7 c7 00 00 00 00 	mov    $0x0,%rdi
     c4c:	e8 00 00 00 00       	callq  c51 <do_syslog+0x1c1>
     c51:	45 85 f6             	test   %r14d,%r14d
     c54:	0f 85 db fe ff ff    	jne    b35 <do_syslog+0xa5>
     c5a:	bf 00 04 00 00       	mov    $0x400,%edi
     c5f:	be c0 00 40 02       	mov    $0x24000c0,%esi
     c64:	e8 00 00 00 00       	callq  c69 <do_syslog+0x1d9>
     c69:	48 89 45 d0          	mov    %rax,-0x30(%rbp)
     c6d:	48 85 c0             	test   %rax,%rax
     c70:	0f 84 95 06 00 00    	je     130b <do_syslog+0x87b>
     c76:	45 31 f6             	xor    %r14d,%r14d
     c79:	45 85 ed             	test   %r13d,%r13d
     c7c:	0f 8e ae 06 00 00    	jle    1330 <do_syslog+0x8a0>
     c82:	48 c7 c7 00 00 00 00 	mov    $0x0,%rdi
     c89:	e8 00 00 00 00       	callq  c8e <do_syslog+0x1fe>
     c8e:	48 8b 0c 25 00 00 00 	mov    0x0,%rcx
     c95:	00 
     c96:	48 8b 04 25 00 00 00 	mov    0x0,%rax
     c9d:	00 
     c9e:	48 39 c1             	cmp    %rax,%rcx
     ca1:	73 30                	jae    cd3 <do_syslog+0x243>
     ca3:	48 89 04 25 00 00 00 	mov    %rax,0x0
     caa:	00 
     cab:	8b 0c 25 00 00 00 00 	mov    0x0,%ecx
     cb2:	89 0c 25 00 00 00 00 	mov    %ecx,0x0
     cb9:	c7 04 25 00 00 00 00 	movl   $0x0,0x0
     cc0:	00 00 00 00 
     cc4:	48 c7 04 25 00 00 00 	movq   $0x0,0x0
     ccb:	00 00 00 00 00 
     cd0:	48 89 c1             	mov    %rax,%rcx
     cd3:	48 3b 0c 25 00 00 00 	cmp    0x0,%rcx
     cda:	00 
     cdb:	0f 84 35 06 00 00    	je     1316 <do_syslog+0x886>
     ce1:	48 8b 04 25 00 00 00 	mov    0x0,%rax
     ce8:	00 
     ce9:	48 89 45 c0          	mov    %rax,-0x40(%rbp)
     ced:	48 8b 04 25 00 00 00 	mov    0x0,%rax
     cf4:	00 
     cf5:	8b 0c 25 00 00 00 00 	mov    0x0,%ecx
     cfc:	4c 8d 24 08          	lea    (%rax,%rcx,1),%r12
     d00:	66 83 7c 08 08 00    	cmpw   $0x0,0x8(%rax,%rcx,1)
     d06:	4c 0f 44 e0          	cmove  %rax,%r12
     d0a:	8b 34 25 00 00 00 00 	mov    0x0,%esi
     d11:	ba 01 00 00 00       	mov    $0x1,%edx
     d16:	41 b8 00 04 00 00    	mov    $0x400,%r8d
     d1c:	4c 89 e7             	mov    %r12,%rdi
     d1f:	48 8b 4d d0          	mov    -0x30(%rbp),%rcx
     d23:	e8 18 06 00 00       	callq  1340 <msg_print_text>
     d28:	48 89 c3             	mov    %rax,%rbx
     d2b:	48 8b 04 25 00 00 00 	mov    0x0,%rax
     d32:	00 
     d33:	48 29 c3             	sub    %rax,%rbx
     d36:	4c 89 6d c8          	mov    %r13,-0x38(%rbp)
     d3a:	49 63 cd             	movslq %r13d,%rcx
     d3d:	48 39 cb             	cmp    %rcx,%rbx
     d40:	76 09                	jbe    d4b <do_syslog+0x2bb>
     d42:	45 85 f6             	test   %r14d,%r14d
     d45:	74 20                	je     d67 <do_syslog+0x2d7>
     d47:	31 db                	xor    %ebx,%ebx
     d49:	eb 51                	jmp    d9c <do_syslog+0x30c>
     d4b:	8b 0c 25 00 00 00 00 	mov    0x0,%ecx
     d52:	48 8b 14 25 00 00 00 	mov    0x0,%rdx
     d59:	00 
     d5a:	0f b7 44 0a 08       	movzwl 0x8(%rdx,%rcx,1),%eax
     d5f:	85 c0                	test   %eax,%eax
     d61:	74 0c                	je     d6f <do_syslog+0x2df>
     d63:	01 c8                	add    %ecx,%eax
     d65:	eb 0c                	jmp    d73 <do_syslog+0x2e3>
     d67:	48 01 c8             	add    %rcx,%rax
     d6a:	48 89 cb             	mov    %rcx,%rbx
     d6d:	eb 25                	jmp    d94 <do_syslog+0x304>
     d6f:	0f b7 42 08          	movzwl 0x8(%rdx),%eax
     d73:	89 04 25 00 00 00 00 	mov    %eax,0x0
     d7a:	48 ff 04 25 00 00 00 	incq   0x0
     d81:	00 
     d82:	41 0f b6 44 24 0f    	movzbl 0xf(%r12),%eax
     d88:	83 e0 1f             	and    $0x1f,%eax
     d8b:	89 04 25 00 00 00 00 	mov    %eax,0x0
     d92:	31 c0                	xor    %eax,%eax
     d94:	48 89 04 25 00 00 00 	mov    %rax,0x0
     d9b:	00 
     d9c:	c6 04 25 00 00 00 00 	movb   $0x0,0x0
     da3:	00 
     da4:	fb                   	sti    
     da5:	48 85 db             	test   %rbx,%rbx
     da8:	0f 84 82 05 00 00    	je     1330 <do_syslog+0x8a0>
     dae:	48 8b 75 c0          	mov    -0x40(%rbp),%rsi
     db2:	48 03 75 d0          	add    -0x30(%rbp),%rsi
     db6:	4c 89 ff             	mov    %r15,%rdi
     db9:	89 da                	mov    %ebx,%edx
     dbb:	e8 00 00 00 00       	callq  dc0 <do_syslog+0x330>
     dc0:	48 85 c0             	test   %rax,%rax
     dc3:	0f 85 58 05 00 00    	jne    1321 <do_syslog+0x891>
     dc9:	41 01 de             	add    %ebx,%r14d
     dcc:	4c 8b 6d c8          	mov    -0x38(%rbp),%r13
     dd0:	41 29 dd             	sub    %ebx,%r13d
     dd3:	49 01 df             	add    %rbx,%r15
     dd6:	45 85 ed             	test   %r13d,%r13d
     dd9:	0f 8f a3 fe ff ff    	jg     c82 <do_syslog+0x1f2>
     ddf:	e9 4c 05 00 00       	jmpq   1330 <do_syslog+0x8a0>
     de4:	41 be ea ff ff ff    	mov    $0xffffffea,%r14d
     dea:	e9 46 fd ff ff       	jmpq   b35 <do_syslog+0xa5>
     def:	b0 01                	mov    $0x1,%al
     df1:	89 45 c0             	mov    %eax,-0x40(%rbp)
     df4:	4d 85 ff             	test   %r15,%r15
     df7:	41 be ea ff ff ff    	mov    $0xffffffea,%r14d
     dfd:	0f 84 32 fd ff ff    	je     b35 <do_syslog+0xa5>
     e03:	45 85 ed             	test   %r13d,%r13d
     e06:	0f 88 29 fd ff ff    	js     b35 <do_syslog+0xa5>
     e0c:	41 be 00 00 00 00    	mov    $0x0,%r14d
     e12:	0f 84 1d fd ff ff    	je     b35 <do_syslog+0xa5>
     e18:	49 63 c5             	movslq %r13d,%rax
     e1b:	65 48 8b 0c 25 00 00 	mov    %gs:0x0,%rcx
     e22:	00 00 
     e24:	41 be f2 ff ff ff    	mov    $0xfffffff2,%r14d
     e2a:	4c 01 f8             	add    %r15,%rax
     e2d:	0f 82 02 fd ff ff    	jb     b35 <do_syslog+0xa5>
     e33:	48 3b 81 18 c0 ff ff 	cmp    -0x3fe8(%rcx),%rax
     e3a:	0f 87 f5 fc ff ff    	ja     b35 <do_syslog+0xa5>
     e40:	bf 00 04 00 00       	mov    $0x400,%edi
     e45:	be c0 00 40 02       	mov    $0x24000c0,%esi
     e4a:	e8 00 00 00 00       	callq  e4f <do_syslog+0x3bf>
     e4f:	48 89 45 b8          	mov    %rax,-0x48(%rbp)
     e53:	48 85 c0             	test   %rax,%rax
     e56:	0f 84 50 02 00 00    	je     10ac <do_syslog+0x61c>
     e5c:	48 c7 c7 00 00 00 00 	mov    $0x0,%rdi
     e63:	e8 00 00 00 00       	callq  e68 <do_syslog+0x3d8>
     e68:	4c 8b 24 25 00 00 00 	mov    0x0,%r12
     e6f:	00 
     e70:	48 8b 04 25 00 00 00 	mov    0x0,%rax
     e77:	00 
     e78:	49 39 c4             	cmp    %rax,%r12
     e7b:	0f 83 36 02 00 00    	jae    10b7 <do_syslog+0x627>
     e81:	48 89 04 25 00 00 00 	mov    %rax,0x0
     e88:	00 
     e89:	8b 14 25 00 00 00 00 	mov    0x0,%edx
     e90:	89 14 25 00 00 00 00 	mov    %edx,0x0
     e97:	49 89 c4             	mov    %rax,%r12
     e9a:	e9 1f 02 00 00       	jmpq   10be <do_syslog+0x62e>
     e9f:	bf 00 04 00 00       	mov    $0x400,%edi
     ea4:	be c0 00 40 02       	mov    $0x24000c0,%esi
     ea9:	e8 00 00 00 00       	callq  eae <do_syslog+0x41e>
     eae:	48 89 c3             	mov    %rax,%rbx
     eb1:	48 85 db             	test   %rbx,%rbx
     eb4:	0f 84 d6 01 00 00    	je     1090 <do_syslog+0x600>
     eba:	48 c7 c7 00 00 00 00 	mov    $0x0,%rdi
     ec1:	e8 00 00 00 00       	callq  ec6 <do_syslog+0x436>
     ec6:	48 8b 04 25 00 00 00 	mov    0x0,%rax
     ecd:	00 
     ece:	48 89 04 25 00 00 00 	mov    %rax,0x0
     ed5:	00 
     ed6:	8b 04 25 00 00 00 00 	mov    0x0,%eax
     edd:	89 04 25 00 00 00 00 	mov    %eax,0x0
     ee4:	c6 04 25 00 00 00 00 	movb   $0x0,0x0
     eeb:	00 
     eec:	fb                   	sti    
     eed:	48 89 df             	mov    %rbx,%rdi
     ef0:	e8 00 00 00 00       	callq  ef5 <do_syslog+0x465>
     ef5:	45 31 f6             	xor    %r14d,%r14d
     ef8:	e9 38 fc ff ff       	jmpq   b35 <do_syslog+0xa5>
     efd:	83 3c 25 00 00 00 00 	cmpl   $0xffffffff,0x0
     f04:	ff 
     f05:	75 0e                	jne    f15 <do_syslog+0x485>
     f07:	8b 04 25 00 00 00 00 	mov    0x0,%eax
     f0e:	89 04 25 00 00 00 00 	mov    %eax,0x0
     f15:	8b 04 25 00 00 00 00 	mov    0x0,%eax
     f1c:	89 04 25 00 00 00 00 	mov    %eax,0x0
     f23:	45 31 f6             	xor    %r14d,%r14d
     f26:	e9 0a fc ff ff       	jmpq   b35 <do_syslog+0xa5>
     f2b:	8b 04 25 00 00 00 00 	mov    0x0,%eax
     f32:	83 f8 ff             	cmp    $0xffffffff,%eax
     f35:	0f 84 55 01 00 00    	je     1090 <do_syslog+0x600>
     f3b:	89 04 25 00 00 00 00 	mov    %eax,0x0
     f42:	eb 29                	jmp    f6d <do_syslog+0x4dd>
     f44:	41 8d 45 ff          	lea    -0x1(%r13),%eax
     f48:	41 be ea ff ff ff    	mov    $0xffffffea,%r14d
     f4e:	83 f8 07             	cmp    $0x7,%eax
     f51:	0f 87 de fb ff ff    	ja     b35 <do_syslog+0xa5>
     f57:	8b 04 25 00 00 00 00 	mov    0x0,%eax
     f5e:	44 39 e8             	cmp    %r13d,%eax
     f61:	44 0f 4d e8          	cmovge %eax,%r13d
     f65:	44 89 2c 25 00 00 00 	mov    %r13d,0x0
     f6c:	00 
     f6d:	c7 04 25 00 00 00 00 	movl   $0xffffffff,0x0
     f74:	ff ff ff ff 
     f78:	45 31 f6             	xor    %r14d,%r14d
     f7b:	e9 b5 fb ff ff       	jmpq   b35 <do_syslog+0xa5>
     f80:	48 c7 c7 00 00 00 00 	mov    $0x0,%rdi
     f87:	e8 00 00 00 00       	callq  f8c <do_syslog+0x4fc>
     f8c:	4c 8b 2c 25 00 00 00 	mov    0x0,%r13
     f93:	00 
     f94:	48 8b 04 25 00 00 00 	mov    0x0,%rax
     f9b:	00 
     f9c:	49 39 c5             	cmp    %rax,%r13
     f9f:	73 30                	jae    fd1 <do_syslog+0x541>
     fa1:	48 89 04 25 00 00 00 	mov    %rax,0x0
     fa8:	00 
     fa9:	8b 0c 25 00 00 00 00 	mov    0x0,%ecx
     fb0:	89 0c 25 00 00 00 00 	mov    %ecx,0x0
     fb7:	c7 04 25 00 00 00 00 	movl   $0x0,0x0
     fbe:	00 00 00 00 
     fc2:	48 c7 04 25 00 00 00 	movq   $0x0,0x0
     fc9:	00 00 00 00 00 
     fce:	49 89 c5             	mov    %rax,%r13
     fd1:	41 83 fc 01          	cmp    $0x1,%r12d
     fd5:	48 c7 c0 00 00 00 00 	mov    $0x0,%rax
     fdc:	4c 8b 34 25 00 00 00 	mov    0x0,%r14
     fe3:	00 
     fe4:	0f 84 b1 00 00 00    	je     109b <do_syslog+0x60b>
     fea:	48 c7 c0 00 00 00 00 	mov    $0x0,%rax
     ff1:	4d 39 f5             	cmp    %r14,%r13
     ff4:	0f 83 9e 00 00 00    	jae    1098 <do_syslog+0x608>
     ffa:	8b 34 25 00 00 00 00 	mov    0x0,%esi
    1001:	44 8b 24 25 00 00 00 	mov    0x0,%r12d
    1008:	00 
    1009:	48 8b 0c 25 00 00 00 	mov    0x0,%rcx
    1010:	00 
    1011:	45 31 f6             	xor    %r14d,%r14d
    1014:	66 90                	xchg   %ax,%ax
    1016:	66 2e 0f 1f 84 00 00 	nopw   %cs:0x0(%rax,%rax,1)
    101d:	00 00 00 
    1020:	45 89 e7             	mov    %r12d,%r15d
    1023:	4a 8d 1c 39          	lea    (%rcx,%r15,1),%rbx
    1027:	66 42 83 7c 39 08 00 	cmpw   $0x0,0x8(%rcx,%r15,1)
    102e:	48 0f 44 d9          	cmove  %rcx,%rbx
    1032:	ba 01 00 00 00       	mov    $0x1,%edx
    1037:	31 c9                	xor    %ecx,%ecx
    1039:	45 31 c0             	xor    %r8d,%r8d
    103c:	48 89 df             	mov    %rbx,%rdi
    103f:	e8 fc 02 00 00       	callq  1340 <msg_print_text>
    1044:	4c 01 f0             	add    %r14,%rax
    1047:	48 8b 0c 25 00 00 00 	mov    0x0,%rcx
    104e:	00 
    104f:	42 0f b7 54 39 08    	movzwl 0x8(%rcx,%r15,1),%edx
    1055:	85 d2                	test   %edx,%edx
    1057:	74 05                	je     105e <do_syslog+0x5ce>
    1059:	41 01 d4             	add    %edx,%r12d
    105c:	eb 05                	jmp    1063 <do_syslog+0x5d3>
    105e:	44 0f b7 61 08       	movzwl 0x8(%rcx),%r12d
    1063:	49 ff c5             	inc    %r13
    1066:	0f b6 73 0f          	movzbl 0xf(%rbx),%esi
    106a:	83 e6 1f             	and    $0x1f,%esi
    106d:	4c 63 f0             	movslq %eax,%r14
    1070:	4c 3b 2c 25 00 00 00 	cmp    0x0,%r13
    1077:	00 
    1078:	72 a6                	jb     1020 <do_syslog+0x590>
    107a:	48 c7 c0 00 00 00 00 	mov    $0x0,%rax
    1081:	eb 18                	jmp    109b <do_syslog+0x60b>
    1083:	44 8b 34 25 00 00 00 	mov    0x0,%r14d
    108a:	00 
    108b:	e9 a5 fa ff ff       	jmpq   b35 <do_syslog+0xa5>
    1090:	45 31 f6             	xor    %r14d,%r14d
    1093:	e9 9d fa ff ff       	jmpq   b35 <do_syslog+0xa5>
    1098:	45 31 f6             	xor    %r14d,%r14d
    109b:	44 2b 30             	sub    (%rax),%r14d
    109e:	c6 04 25 00 00 00 00 	movb   $0x0,0x0
    10a5:	00 
    10a6:	fb                   	sti    
    10a7:	e9 89 fa ff ff       	jmpq   b35 <do_syslog+0xa5>
    10ac:	41 be f4 ff ff ff    	mov    $0xfffffff4,%r14d
    10b2:	e9 7e fa ff ff       	jmpq   b35 <do_syslog+0xa5>
    10b7:	8b 14 25 00 00 00 00 	mov    0x0,%edx
    10be:	48 8b 0c 25 00 00 00 	mov    0x0,%rcx
    10c5:	00 
    10c6:	31 f6                	xor    %esi,%esi
    10c8:	49 39 cc             	cmp    %rcx,%r12
    10cb:	4c 89 7d b0          	mov    %r15,-0x50(%rbp)
    10cf:	4c 89 6d c8          	mov    %r13,-0x38(%rbp)
    10d3:	0f 83 92 00 00 00    	jae    116b <do_syslog+0x6db>
    10d9:	45 31 f6             	xor    %r14d,%r14d
    10dc:	48 8b 04 25 00 00 00 	mov    0x0,%rax
    10e3:	00 
    10e4:	31 f6                	xor    %esi,%esi
    10e6:	4c 89 75 d0          	mov    %r14,-0x30(%rbp)
    10ea:	41 89 d5             	mov    %edx,%r13d
    10ed:	4a 8d 1c 28          	lea    (%rax,%r13,1),%rbx
    10f1:	66 42 83 7c 28 08 00 	cmpw   $0x0,0x8(%rax,%r13,1)
    10f8:	48 0f 44 d8          	cmove  %rax,%rbx
    10fc:	41 89 d7             	mov    %edx,%r15d
    10ff:	ba 01 00 00 00       	mov    $0x1,%edx
    1104:	31 c9                	xor    %ecx,%ecx
    1106:	45 31 c0             	xor    %r8d,%r8d
    1109:	48 89 df             	mov    %rbx,%rdi
    110c:	e8 2f 02 00 00       	callq  1340 <msg_print_text>
    1111:	49 89 c6             	mov    %rax,%r14
    1114:	8b 4d d0             	mov    -0x30(%rbp),%ecx
    1117:	0f b6 73 0f          	movzbl 0xf(%rbx),%esi
    111b:	48 8b 04 25 00 00 00 	mov    0x0,%rax
    1122:	00 
    1123:	42 0f b7 54 28 08    	movzwl 0x8(%rax,%r13,1),%edx
    1129:	85 d2                	test   %edx,%edx
    112b:	74 08                	je     1135 <do_syslog+0x6a5>
    112d:	41 01 d7             	add    %edx,%r15d
    1130:	44 89 fa             	mov    %r15d,%edx
    1133:	eb 04                	jmp    1139 <do_syslog+0x6a9>
    1135:	0f b7 50 08          	movzwl 0x8(%rax),%edx
    1139:	49 01 ce             	add    %rcx,%r14
    113c:	83 e6 1f             	and    $0x1f,%esi
    113f:	49 ff c4             	inc    %r12
    1142:	48 8b 0c 25 00 00 00 	mov    0x0,%rcx
    1149:	00 
    114a:	49 39 cc             	cmp    %rcx,%r12
    114d:	72 97                	jb     10e6 <do_syslog+0x656>
    114f:	4c 8b 24 25 00 00 00 	mov    0x0,%r12
    1156:	00 
    1157:	8b 14 25 00 00 00 00 	mov    0x0,%edx
    115e:	4c 8b 6d c8          	mov    -0x38(%rbp),%r13
    1162:	31 f6                	xor    %esi,%esi
    1164:	49 39 cc             	cmp    %rcx,%r12
    1167:	72 0a                	jb     1173 <do_syslog+0x6e3>
    1169:	eb 7f                	jmp    11ea <do_syslog+0x75a>
    116b:	45 31 f6             	xor    %r14d,%r14d
    116e:	49 39 cc             	cmp    %rcx,%r12
    1171:	73 77                	jae    11ea <do_syslog+0x75a>
    1173:	45 39 ee             	cmp    %r13d,%r14d
    1176:	7e 72                	jle    11ea <do_syslog+0x75a>
    1178:	31 f6                	xor    %esi,%esi
    117a:	48 8b 04 25 00 00 00 	mov    0x0,%rax
    1181:	00 
    1182:	41 89 d7             	mov    %edx,%r15d
    1185:	4a 8d 1c 38          	lea    (%rax,%r15,1),%rbx
    1189:	66 42 83 7c 38 08 00 	cmpw   $0x0,0x8(%rax,%r15,1)
    1190:	48 0f 44 d8          	cmove  %rax,%rbx
    1194:	41 89 d5             	mov    %edx,%r13d
    1197:	ba 01 00 00 00       	mov    $0x1,%edx
    119c:	31 c9                	xor    %ecx,%ecx
    119e:	45 31 c0             	xor    %r8d,%r8d
    11a1:	48 89 df             	mov    %rbx,%rdi
    11a4:	e8 97 01 00 00       	callq  1340 <msg_print_text>
    11a9:	41 29 c6             	sub    %eax,%r14d
    11ac:	0f b6 73 0f          	movzbl 0xf(%rbx),%esi
    11b0:	48 8b 04 25 00 00 00 	mov    0x0,%rax
    11b7:	00 
    11b8:	42 0f b7 4c 38 08    	movzwl 0x8(%rax,%r15,1),%ecx
    11be:	85 c9                	test   %ecx,%ecx
    11c0:	74 08                	je     11ca <do_syslog+0x73a>
    11c2:	41 01 cd             	add    %ecx,%r13d
    11c5:	44 89 ea             	mov    %r13d,%edx
    11c8:	eb 04                	jmp    11ce <do_syslog+0x73e>
    11ca:	0f b7 50 08          	movzwl 0x8(%rax),%edx
    11ce:	83 e6 1f             	and    $0x1f,%esi
    11d1:	49 ff c4             	inc    %r12
    11d4:	48 8b 0c 25 00 00 00 	mov    0x0,%rcx
    11db:	00 
    11dc:	4c 8b 6d c8          	mov    -0x38(%rbp),%r13
    11e0:	45 39 ee             	cmp    %r13d,%r14d
    11e3:	7e 05                	jle    11ea <do_syslog+0x75a>
    11e5:	49 39 cc             	cmp    %rcx,%r12
    11e8:	72 98                	jb     1182 <do_syslog+0x6f2>
    11ea:	45 31 ff             	xor    %r15d,%r15d
    11ed:	48 89 4d c8          	mov    %rcx,-0x38(%rbp)
    11f1:	49 39 cc             	cmp    %rcx,%r12
    11f4:	0f 83 db 00 00 00    	jae    12d5 <do_syslog+0x845>
    11fa:	48 8b 04 25 00 00 00 	mov    0x0,%rax
    1201:	00 
    1202:	89 55 d0             	mov    %edx,-0x30(%rbp)
    1205:	41 89 d5             	mov    %edx,%r13d
    1208:	4a 8d 1c 28          	lea    (%rax,%r13,1),%rbx
    120c:	66 42 83 7c 28 08 00 	cmpw   $0x0,0x8(%rax,%r13,1)
    1213:	48 0f 44 d8          	cmove  %rax,%rbx
    1217:	ba 01 00 00 00       	mov    $0x1,%edx
    121c:	41 b8 00 04 00 00    	mov    $0x400,%r8d
    1222:	48 89 df             	mov    %rbx,%rdi
    1225:	48 8b 4d b8          	mov    -0x48(%rbp),%rcx
    1229:	e8 12 01 00 00       	callq  1340 <msg_print_text>
    122e:	49 89 c6             	mov    %rax,%r14
    1231:	45 85 f6             	test   %r14d,%r14d
    1234:	0f 88 9e 00 00 00    	js     12d8 <do_syslog+0x848>
    123a:	48 8b 04 25 00 00 00 	mov    0x0,%rax
    1241:	00 
    1242:	42 0f b7 4c 28 08    	movzwl 0x8(%rax,%r13,1),%ecx
    1248:	85 c9                	test   %ecx,%ecx
    124a:	74 09                	je     1255 <do_syslog+0x7c5>
    124c:	44 8b 6d d0          	mov    -0x30(%rbp),%r13d
    1250:	41 01 cd             	add    %ecx,%r13d
    1253:	eb 05                	jmp    125a <do_syslog+0x7ca>
    1255:	44 0f b7 68 08       	movzwl 0x8(%rax),%r13d
    125a:	49 ff c4             	inc    %r12
    125d:	0f b6 5b 0f          	movzbl 0xf(%rbx),%ebx
    1261:	83 e3 1f             	and    $0x1f,%ebx
    1264:	c6 04 25 00 00 00 00 	movb   $0x0,0x0
    126b:	00 
    126c:	fb                   	sti    
    126d:	4d 63 ff             	movslq %r15d,%r15
    1270:	48 8b 45 b0          	mov    -0x50(%rbp),%rax
    1274:	4a 8d 3c 38          	lea    (%rax,%r15,1),%rdi
    1278:	48 8b 75 b8          	mov    -0x48(%rbp),%rsi
    127c:	44 89 f2             	mov    %r14d,%edx
    127f:	e8 00 00 00 00       	callq  1284 <do_syslog+0x7f4>
    1284:	45 01 f7             	add    %r14d,%r15d
    1287:	48 85 c0             	test   %rax,%rax
    128a:	41 be f2 ff ff ff    	mov    $0xfffffff2,%r14d
    1290:	45 0f 44 f7          	cmove  %r15d,%r14d
    1294:	48 c7 c7 00 00 00 00 	mov    $0x0,%rdi
    129b:	e8 00 00 00 00       	callq  12a0 <do_syslog+0x810>
    12a0:	48 89 de             	mov    %rbx,%rsi
    12a3:	48 8b 04 25 00 00 00 	mov    0x0,%rax
    12aa:	00 
    12ab:	49 39 c4             	cmp    %rax,%r12
    12ae:	44 0f 42 2c 25 00 00 	cmovb  0x0,%r13d
    12b5:	00 00 
    12b7:	b9 00 00 00 00       	mov    $0x0,%ecx
    12bc:	0f 42 f1             	cmovb  %ecx,%esi
    12bf:	4c 0f 42 e0          	cmovb  %rax,%r12
    12c3:	45 85 f6             	test   %r14d,%r14d
    12c6:	44 89 ea             	mov    %r13d,%edx
    12c9:	48 8b 4d c8          	mov    -0x38(%rbp),%rcx
    12cd:	0f 89 1e ff ff ff    	jns    11f1 <do_syslog+0x761>
    12d3:	eb 03                	jmp    12d8 <do_syslog+0x848>
    12d5:	45 89 fe             	mov    %r15d,%r14d
    12d8:	80 7d c0 00          	cmpb   $0x0,-0x40(%rbp)
    12dc:	74 1e                	je     12fc <do_syslog+0x86c>
    12de:	48 8b 04 25 00 00 00 	mov    0x0,%rax
    12e5:	00 
    12e6:	48 89 04 25 00 00 00 	mov    %rax,0x0
    12ed:	00 
    12ee:	8b 04 25 00 00 00 00 	mov    0x0,%eax
    12f5:	89 04 25 00 00 00 00 	mov    %eax,0x0
    12fc:	c6 04 25 00 00 00 00 	movb   $0x0,0x0
    1303:	00 
    1304:	fb                   	sti    
    1305:	48 8b 7d b8          	mov    -0x48(%rbp),%rdi
    1309:	eb 29                	jmp    1334 <do_syslog+0x8a4>
    130b:	41 be f4 ff ff ff    	mov    $0xfffffff4,%r14d
    1311:	e9 1f f8 ff ff       	jmpq   b35 <do_syslog+0xa5>
    1316:	c6 04 25 00 00 00 00 	movb   $0x0,0x0
    131d:	00 
    131e:	fb                   	sti    
    131f:	eb 0f                	jmp    1330 <do_syslog+0x8a0>
    1321:	45 85 f6             	test   %r14d,%r14d
    1324:	b8 f2 ff ff ff       	mov    $0xfffffff2,%eax
    1329:	41 0f 45 c6          	cmovne %r14d,%eax
    132d:	41 89 c6             	mov    %eax,%r14d
    1330:	48 8b 7d d0          	mov    -0x30(%rbp),%rdi
    1334:	e8 00 00 00 00       	callq  1339 <do_syslog+0x8a9>
    1339:	e9 f7 f7 ff ff       	jmpq   b35 <do_syslog+0xa5>
    133e:	66 90                	xchg   %ax,%ax

0000000000001340 <msg_print_text>:
    1340:	55                   	push   %rbp
    1341:	48 89 e5             	mov    %rsp,%rbp
    1344:	41 57                	push   %r15
    1346:	41 56                	push   %r14
    1348:	41 55                	push   %r13
    134a:	41 54                	push   %r12
    134c:	53                   	push   %rbx
    134d:	48 83 ec 48          	sub    $0x48,%rsp
    1351:	4c 89 45 a8          	mov    %r8,-0x58(%rbp)
    1355:	49 89 cd             	mov    %rcx,%r13
    1358:	89 55 cc             	mov    %edx,-0x34(%rbp)
    135b:	44 0f b7 47 0a       	movzwl 0xa(%rdi),%r8d
    1360:	48 89 7d d0          	mov    %rdi,-0x30(%rbp)
    1364:	8a 47 0f             	mov    0xf(%rdi),%al
    1367:	40 f6 c6 08          	test   $0x8,%sil
    136b:	b3 01                	mov    $0x1,%bl
    136d:	41 b6 01             	mov    $0x1,%r14b
    1370:	74 0b                	je     137d <msg_print_text+0x3d>
    1372:	41 88 c6             	mov    %al,%r14b
    1375:	41 c0 ee 02          	shr    $0x2,%r14b
    1379:	41 80 e6 01          	and    $0x1,%r14b
    137d:	48 8b 55 d0          	mov    -0x30(%rbp),%rdx
    1381:	48 8d 52 10          	lea    0x10(%rdx),%rdx
    1385:	48 89 55 b8          	mov    %rdx,-0x48(%rbp)
    1389:	a8 08                	test   $0x8,%al
    138b:	74 11                	je     139e <msg_print_text+0x5e>
    138d:	83 e6 0a             	and    $0xa,%esi
    1390:	83 fe 08             	cmp    $0x8,%esi
    1393:	75 03                	jne    1398 <msg_print_text+0x58>
    1395:	45 31 f6             	xor    %r14d,%r14d
    1398:	d0 e8                	shr    %al
    139a:	24 01                	and    $0x1,%al
    139c:	89 c3                	mov    %eax,%ebx
    139e:	0f b6 c3             	movzbl %bl,%eax
    13a1:	48 89 45 b0          	mov    %rax,-0x50(%rbp)
    13a5:	45 31 e4             	xor    %r12d,%r12d
    13a8:	4c 89 6d c0          	mov    %r13,-0x40(%rbp)
    13ac:	eb 22                	jmp    13d0 <msg_print_text+0x90>
    13ae:	45 31 f6             	xor    %r14d,%r14d
    13b1:	83 fa 09             	cmp    $0x9,%edx
    13b4:	41 0f 97 c6          	seta   %r14b
    13b8:	49 83 c6 03          	add    $0x3,%r14
    13bc:	e9 04 02 00 00       	jmpq   15c5 <msg_print_text+0x285>
    13c1:	0f 1f 44 00 00       	nopl   0x0(%rax,%rax,1)
    13c6:	66 2e 0f 1f 84 00 00 	nopw   %cs:0x0(%rax,%rax,1)
    13cd:	00 00 00 
    13d0:	4c 89 e3             	mov    %r12,%rbx
    13d3:	be 0a 00 00 00       	mov    $0xa,%esi
    13d8:	48 8b 7d b8          	mov    -0x48(%rbp),%rdi
    13dc:	4c 89 c2             	mov    %r8,%rdx
    13df:	4d 89 c4             	mov    %r8,%r12
    13e2:	e8 00 00 00 00       	callq  13e7 <msg_print_text+0xa7>
    13e7:	49 89 c7             	mov    %rax,%r15
    13ea:	4d 85 ff             	test   %r15,%r15
    13ed:	74 21                	je     1410 <msg_print_text+0xd0>
    13ef:	4d 89 f9             	mov    %r15,%r9
    13f2:	48 8b 45 b8          	mov    -0x48(%rbp),%rax
    13f6:	49 29 c1             	sub    %rax,%r9
    13f9:	49 ff c7             	inc    %r15
    13fc:	49 01 c4             	add    %rax,%r12
    13ff:	4d 29 fc             	sub    %r15,%r12
    1402:	eb 12                	jmp    1416 <msg_print_text+0xd6>
    1404:	66 90                	xchg   %ax,%ax
    1406:	66 2e 0f 1f 84 00 00 	nopw   %cs:0x0(%rax,%rax,1)
    140d:	00 00 00 
    1410:	45 31 ff             	xor    %r15d,%r15d
    1413:	4d 89 e1             	mov    %r12,%r9
    1416:	4d 89 e0             	mov    %r12,%r8
    1419:	4d 85 ed             	test   %r13,%r13
    141c:	49 89 dc             	mov    %rbx,%r12
    141f:	74 2f                	je     1450 <msg_print_text+0x110>
    1421:	80 7d cc 00          	cmpb   $0x0,-0x34(%rbp)
    1425:	74 79                	je     14a0 <msg_print_text+0x160>
    1427:	48 8b 4d d0          	mov    -0x30(%rbp),%rcx
    142b:	0f b6 41 0e          	movzbl 0xe(%rcx),%eax
    142f:	0f b6 49 0f          	movzbl 0xf(%rcx),%ecx
    1433:	c0 e9 05             	shr    $0x5,%cl
    1436:	0f b6 c9             	movzbl %cl,%ecx
    1439:	8d 04 c1             	lea    (%rcx,%rax,8),%eax
    143c:	3d e7 03 00 00       	cmp    $0x3e7,%eax
    1441:	76 61                	jbe    14a4 <msg_print_text+0x164>
    1443:	bb 06 00 00 00       	mov    $0x6,%ebx
    1448:	e9 93 00 00 00       	jmpq   14e0 <msg_print_text+0x1a0>
    144d:	0f 1f 00             	nopl   (%rax)
    1450:	41 f6 c6 01          	test   $0x1,%r14b
    1454:	0f 84 fa 02 00 00    	je     1754 <msg_print_text+0x414>
    145a:	80 7d cc 00          	cmpb   $0x0,-0x34(%rbp)
    145e:	74 50                	je     14b0 <msg_print_text+0x170>
    1460:	48 8b 4d d0          	mov    -0x30(%rbp),%rcx
    1464:	0f b6 41 0e          	movzbl 0xe(%rcx),%eax
    1468:	0f b6 49 0f          	movzbl 0xf(%rcx),%ecx
    146c:	c0 e9 05             	shr    $0x5,%cl
    146f:	0f b6 c9             	movzbl %cl,%ecx
    1472:	8d 04 c1             	lea    (%rcx,%rax,8),%eax
    1475:	3d e7 03 00 00       	cmp    $0x3e7,%eax
    147a:	0f 86 3a 02 00 00    	jbe    16ba <msg_print_text+0x37a>
    1480:	bb 06 00 00 00       	mov    $0x6,%ebx
    1485:	80 3c 25 00 00 00 00 	cmpb   $0x0,0x0
    148c:	00 
    148d:	0f 85 71 02 00 00    	jne    1704 <msg_print_text+0x3c4>
    1493:	e9 ad 02 00 00       	jmpq   1745 <msg_print_text+0x405>
    1498:	0f 1f 84 00 00 00 00 	nopl   0x0(%rax,%rax,1)
    149f:	00 
    14a0:	31 db                	xor    %ebx,%ebx
    14a2:	eb 3c                	jmp    14e0 <msg_print_text+0x1a0>
    14a4:	83 f8 63             	cmp    $0x63,%eax
    14a7:	76 1c                	jbe    14c5 <msg_print_text+0x185>
    14a9:	bb 05 00 00 00       	mov    $0x5,%ebx
    14ae:	eb 30                	jmp    14e0 <msg_print_text+0x1a0>
    14b0:	31 db                	xor    %ebx,%ebx
    14b2:	80 3c 25 00 00 00 00 	cmpb   $0x0,0x0
    14b9:	00 
    14ba:	0f 85 44 02 00 00    	jne    1704 <msg_print_text+0x3c4>
    14c0:	e9 80 02 00 00       	jmpq   1745 <msg_print_text+0x405>
    14c5:	31 db                	xor    %ebx,%ebx
    14c7:	83 f8 09             	cmp    $0x9,%eax
    14ca:	0f 97 c3             	seta   %bl
    14cd:	48 83 c3 03          	add    $0x3,%rbx
    14d1:	0f 1f 44 00 00       	nopl   0x0(%rax,%rax,1)
    14d6:	66 2e 0f 1f 84 00 00 	nopw   %cs:0x0(%rax,%rax,1)
    14dd:	00 00 00 
    14e0:	4c 89 45 98          	mov    %r8,-0x68(%rbp)
    14e4:	80 3c 25 00 00 00 00 	cmpb   $0x0,0x0
    14eb:	00 
    14ec:	74 52                	je     1540 <msg_print_text+0x200>
    14ee:	48 8b 45 d0          	mov    -0x30(%rbp),%rax
    14f2:	48 8b 00             	mov    (%rax),%rax
    14f5:	48 c1 e8 09          	shr    $0x9,%rax
    14f9:	48 b9 53 5a 9b a0 2f 	movabs $0x44b82fa09b5a53,%rcx
    1500:	b8 44 00 
    1503:	48 f7 e1             	mul    %rcx
    1506:	48 89 d1             	mov    %rdx,%rcx
    1509:	48 c1 e9 0b          	shr    $0xb,%rcx
    150d:	31 ff                	xor    %edi,%edi
    150f:	31 f6                	xor    %esi,%esi
    1511:	48 c7 c2 00 00 00 00 	mov    $0x0,%rdx
    1518:	31 c0                	xor    %eax,%eax
    151a:	4c 89 65 a0          	mov    %r12,-0x60(%rbp)
    151e:	45 89 f4             	mov    %r14d,%r12d
    1521:	4d 89 cd             	mov    %r9,%r13
    1524:	e8 00 00 00 00       	callq  1529 <msg_print_text+0x1e9>
    1529:	4d 89 e9             	mov    %r13,%r9
    152c:	4c 8b 65 a0          	mov    -0x60(%rbp),%r12
    1530:	48 98                	cltq   
    1532:	eb 0e                	jmp    1542 <msg_print_text+0x202>
    1534:	66 90                	xchg   %ax,%ax
    1536:	66 2e 0f 1f 84 00 00 	nopw   %cs:0x0(%rax,%rax,1)
    153d:	00 00 00 
    1540:	31 c0                	xor    %eax,%eax
    1542:	4c 01 cb             	add    %r9,%rbx
    1545:	48 8d 44 18 01       	lea    0x1(%rax,%rbx,1),%rax
    154a:	48 8b 4d a8          	mov    -0x58(%rbp),%rcx
    154e:	4c 29 e1             	sub    %r12,%rcx
    1551:	48 39 c8             	cmp    %rcx,%rax
    1554:	0f 83 1c 02 00 00    	jae    1776 <msg_print_text+0x436>
    155a:	41 f6 c6 01          	test   $0x1,%r14b
    155e:	75 10                	jne    1570 <msg_print_text+0x230>
    1560:	48 8b 4d c0          	mov    -0x40(%rbp),%rcx
    1564:	e9 04 01 00 00       	jmpq   166d <msg_print_text+0x32d>
    1569:	0f 1f 80 00 00 00 00 	nopl   0x0(%rax)
    1570:	48 8b 45 c0          	mov    -0x40(%rbp),%rax
    1574:	4a 8d 1c 20          	lea    (%rax,%r12,1),%rbx
    1578:	80 7d cc 00          	cmpb   $0x0,-0x34(%rbp)
    157c:	74 3a                	je     15b8 <msg_print_text+0x278>
    157e:	48 8b 4d d0          	mov    -0x30(%rbp),%rcx
    1582:	0f b6 41 0e          	movzbl 0xe(%rcx),%eax
    1586:	0f b6 49 0f          	movzbl 0xf(%rcx),%ecx
    158a:	c0 e9 05             	shr    $0x5,%cl
    158d:	0f b6 c9             	movzbl %cl,%ecx
    1590:	8d 14 c1             	lea    (%rcx,%rax,8),%edx
    1593:	48 85 db             	test   %rbx,%rbx
    1596:	0f 84 0b 01 00 00    	je     16a7 <msg_print_text+0x367>
    159c:	48 c7 c6 00 00 00 00 	mov    $0x0,%rsi
    15a3:	31 c0                	xor    %eax,%eax
    15a5:	48 89 df             	mov    %rbx,%rdi
    15a8:	4d 89 ce             	mov    %r9,%r14
    15ab:	e8 00 00 00 00       	callq  15b0 <msg_print_text+0x270>
    15b0:	4d 89 f1             	mov    %r14,%r9
    15b3:	4c 63 f0             	movslq %eax,%r14
    15b6:	eb 03                	jmp    15bb <msg_print_text+0x27b>
    15b8:	45 31 f6             	xor    %r14d,%r14d
    15bb:	49 b8 53 5a 9b a0 2f 	movabs $0x44b82fa09b5a53,%r8
    15c2:	b8 44 00 
    15c5:	4a 8d 3c 33          	lea    (%rbx,%r14,1),%rdi
    15c9:	48 85 db             	test   %rbx,%rbx
    15cc:	48 0f 44 fb          	cmove  %rbx,%rdi
    15d0:	80 3c 25 00 00 00 00 	cmpb   $0x0,0x0
    15d7:	00 
    15d8:	74 68                	je     1642 <msg_print_text+0x302>
    15da:	48 8b 45 d0          	mov    -0x30(%rbp),%rax
    15de:	48 8b 30             	mov    (%rax),%rsi
    15e1:	48 89 f3             	mov    %rsi,%rbx
    15e4:	48 c1 eb 09          	shr    $0x9,%rbx
    15e8:	48 89 d8             	mov    %rbx,%rax
    15eb:	49 f7 e0             	mul    %r8
    15ee:	48 89 d1             	mov    %rdx,%rcx
    15f1:	48 c1 e9 0b          	shr    $0xb,%rcx
    15f5:	48 85 ff             	test   %rdi,%rdi
    15f8:	74 4c                	je     1646 <msg_print_text+0x306>
    15fa:	48 89 d8             	mov    %rbx,%rax
    15fd:	49 f7 e0             	mul    %r8
    1600:	48 c1 ea 0b          	shr    $0xb,%rdx
    1604:	48 69 c2 00 ca 9a 3b 	imul   $0x3b9aca00,%rdx,%rax
    160b:	48 29 c6             	sub    %rax,%rsi
    160e:	48 c1 ee 03          	shr    $0x3,%rsi
    1612:	48 89 f0             	mov    %rsi,%rax
    1615:	48 ba cf f7 53 e3 a5 	movabs $0x20c49ba5e353f7cf,%rdx
    161c:	9b c4 20 
    161f:	48 f7 e2             	mul    %rdx
    1622:	48 89 d3             	mov    %rdx,%rbx
    1625:	48 c1 eb 04          	shr    $0x4,%rbx
    1629:	48 c7 c6 00 00 00 00 	mov    $0x0,%rsi
    1630:	31 c0                	xor    %eax,%eax
    1632:	48 89 ca             	mov    %rcx,%rdx
    1635:	48 89 d9             	mov    %rbx,%rcx
    1638:	4c 89 cb             	mov    %r9,%rbx
    163b:	e8 00 00 00 00       	callq  1640 <msg_print_text+0x300>
    1640:	eb 19                	jmp    165b <msg_print_text+0x31b>
    1642:	31 c0                	xor    %eax,%eax
    1644:	eb 1a                	jmp    1660 <msg_print_text+0x320>
    1646:	31 ff                	xor    %edi,%edi
    1648:	31 f6                	xor    %esi,%esi
    164a:	48 c7 c2 00 00 00 00 	mov    $0x0,%rdx
    1651:	31 c0                	xor    %eax,%eax
    1653:	4c 89 cb             	mov    %r9,%rbx
    1656:	e8 00 00 00 00       	callq  165b <msg_print_text+0x31b>
    165b:	49 89 d9             	mov    %rbx,%r9
    165e:	48 98                	cltq   
    1660:	48 8b 4d c0          	mov    -0x40(%rbp),%rcx
    1664:	4d 01 e6             	add    %r12,%r14
    1667:	49 01 c6             	add    %rax,%r14
    166a:	4d 89 f4             	mov    %r14,%r12
    166d:	49 89 cd             	mov    %rcx,%r13
    1670:	4a 8d 3c 21          	lea    (%rcx,%r12,1),%rdi
    1674:	48 8b 75 b8          	mov    -0x48(%rbp),%rsi
    1678:	4c 89 ca             	mov    %r9,%rdx
    167b:	4c 89 cb             	mov    %r9,%rbx
    167e:	e8 00 00 00 00       	callq  1683 <msg_print_text+0x343>
    1683:	49 01 dc             	add    %rbx,%r12
    1686:	80 7d b0 00          	cmpb   $0x0,-0x50(%rbp)
    168a:	75 09                	jne    1695 <msg_print_text+0x355>
    168c:	4d 85 ff             	test   %r15,%r15
    168f:	0f 84 e1 00 00 00    	je     1776 <msg_print_text+0x436>
    1695:	43 c6 44 25 00 0a    	movb   $0xa,0x0(%r13,%r12,1)
    169b:	49 ff c4             	inc    %r12
    169e:	4c 8b 45 98          	mov    -0x68(%rbp),%r8
    16a2:	e9 bf 00 00 00       	jmpq   1766 <msg_print_text+0x426>
    16a7:	81 fa e7 03 00 00    	cmp    $0x3e7,%edx
    16ad:	76 21                	jbe    16d0 <msg_print_text+0x390>
    16af:	41 be 06 00 00 00    	mov    $0x6,%r14d
    16b5:	e9 01 ff ff ff       	jmpq   15bb <msg_print_text+0x27b>
    16ba:	83 f8 63             	cmp    $0x63,%eax
    16bd:	76 2f                	jbe    16ee <msg_print_text+0x3ae>
    16bf:	bb 05 00 00 00       	mov    $0x5,%ebx
    16c4:	80 3c 25 00 00 00 00 	cmpb   $0x0,0x0
    16cb:	00 
    16cc:	75 36                	jne    1704 <msg_print_text+0x3c4>
    16ce:	eb 75                	jmp    1745 <msg_print_text+0x405>
    16d0:	83 fa 63             	cmp    $0x63,%edx
    16d3:	49 b8 53 5a 9b a0 2f 	movabs $0x44b82fa09b5a53,%r8
    16da:	b8 44 00 
    16dd:	0f 86 cb fc ff ff    	jbe    13ae <msg_print_text+0x6e>
    16e3:	41 be 05 00 00 00    	mov    $0x5,%r14d
    16e9:	e9 d7 fe ff ff       	jmpq   15c5 <msg_print_text+0x285>
    16ee:	31 db                	xor    %ebx,%ebx
    16f0:	83 f8 09             	cmp    $0x9,%eax
    16f3:	0f 97 c3             	seta   %bl
    16f6:	48 83 c3 03          	add    $0x3,%rbx
    16fa:	80 3c 25 00 00 00 00 	cmpb   $0x0,0x0
    1701:	00 
    1702:	74 41                	je     1745 <msg_print_text+0x405>
    1704:	48 8b 45 d0          	mov    -0x30(%rbp),%rax
    1708:	48 8b 00             	mov    (%rax),%rax
    170b:	48 c1 e8 09          	shr    $0x9,%rax
    170f:	48 b9 53 5a 9b a0 2f 	movabs $0x44b82fa09b5a53,%rcx
    1716:	b8 44 00 
    1719:	48 f7 e1             	mul    %rcx
    171c:	48 89 d1             	mov    %rdx,%rcx
    171f:	48 c1 e9 0b          	shr    $0xb,%rcx
    1723:	31 ff                	xor    %edi,%edi
    1725:	31 f6                	xor    %esi,%esi
    1727:	48 c7 c2 00 00 00 00 	mov    $0x0,%rdx
    172e:	31 c0                	xor    %eax,%eax
    1730:	4d 89 c6             	mov    %r8,%r14
    1733:	4d 89 cd             	mov    %r9,%r13
    1736:	e8 00 00 00 00       	callq  173b <msg_print_text+0x3fb>
    173b:	4d 89 e9             	mov    %r13,%r9
    173e:	4d 89 f0             	mov    %r14,%r8
    1741:	48 98                	cltq   
    1743:	eb 02                	jmp    1747 <msg_print_text+0x407>
    1745:	31 c0                	xor    %eax,%eax
    1747:	4c 01 e3             	add    %r12,%rbx
    174a:	48 01 c3             	add    %rax,%rbx
    174d:	49 89 dc             	mov    %rbx,%r12
    1750:	4c 8b 6d c0          	mov    -0x40(%rbp),%r13
    1754:	31 c0                	xor    %eax,%eax
    1756:	4d 85 ff             	test   %r15,%r15
    1759:	0f 95 c0             	setne  %al
    175c:	48 0b 45 b0          	or     -0x50(%rbp),%rax
    1760:	4c 01 c8             	add    %r9,%rax
    1763:	49 01 c4             	add    %rax,%r12
    1766:	41 b6 01             	mov    $0x1,%r14b
    1769:	4d 85 ff             	test   %r15,%r15
    176c:	4c 89 7d b8          	mov    %r15,-0x48(%rbp)
    1770:	0f 85 5a fc ff ff    	jne    13d0 <msg_print_text+0x90>
    1776:	4c 89 e0             	mov    %r12,%rax
    1779:	48 83 c4 48          	add    $0x48,%rsp
    177d:	5b                   	pop    %rbx
    177e:	41 5c                	pop    %r12
    1780:	41 5d                	pop    %r13
    1782:	41 5e                	pop    %r14
    1784:	41 5f                	pop    %r15
    1786:	5d                   	pop    %rbp
    1787:	c3                   	retq   
    1788:	0f 1f 84 00 00 00 00 	nopl   0x0(%rax,%rax,1)
    178f:	00 

0000000000001790 <SyS_syslog>:
    1790:	55                   	push   %rbp
    1791:	48 89 e5             	mov    %rsp,%rbp
    1794:	53                   	push   %rbx
    1795:	50                   	push   %rax
    1796:	31 c9                	xor    %ecx,%ecx
    1798:	e8 00 00 00 00       	callq  179d <SyS_syslog+0xd>
    179d:	48 63 d8             	movslq %eax,%rbx
    17a0:	48 89 ef             	mov    %rbp,%rdi
    17a3:	e8 00 00 00 00       	callq  17a8 <SyS_syslog+0x18>
    17a8:	48 ff 45 08          	incq   0x8(%rbp)
    17ac:	48 ff 4d 08          	decq   0x8(%rbp)
    17b0:	90                   	nop
    17b1:	90                   	nop
    17b2:	90                   	nop
    17b3:	90                   	nop
    17b4:	48 89 d8             	mov    %rbx,%rax
    17b7:	48 83 c4 08          	add    $0x8,%rsp
    17bb:	5b                   	pop    %rbx
    17bc:	5d                   	pop    %rbp
    17bd:	c3                   	retq   
    17be:	66 90                	xchg   %ax,%ax

00000000000017c0 <vprintk_emit>:
    17c0:	55                   	push   %rbp
    17c1:	48 89 e5             	mov    %rsp,%rbp
    17c4:	41 57                	push   %r15
    17c6:	41 56                	push   %r14
    17c8:	41 55                	push   %r13
    17ca:	41 54                	push   %r12
    17cc:	53                   	push   %rbx
    17cd:	48 83 ec 58          	sub    $0x58,%rsp
    17d1:	4d 89 cc             	mov    %r9,%r12
    17d4:	4d 89 c5             	mov    %r8,%r13
    17d7:	48 89 4d a8          	mov    %rcx,-0x58(%rbp)
    17db:	48 89 55 b0          	mov    %rdx,-0x50(%rbp)
    17df:	41 89 f7             	mov    %esi,%r15d
    17e2:	89 7d d4             	mov    %edi,-0x2c(%rbp)
    17e5:	41 83 ff fe          	cmp    $0xfffffffe,%r15d
    17e9:	41 be ff ff ff ff    	mov    $0xffffffff,%r14d
    17ef:	45 0f 45 f7          	cmovne %r15d,%r14d
    17f3:	8b 1c 25 00 00 00 00 	mov    0x0,%ebx
    17fa:	85 db                	test   %ebx,%ebx
    17fc:	0f 85 05 04 00 00    	jne    1c07 <vprintk_emit+0x447>
    1802:	9c                   	pushfq 
    1803:	8f 45 90             	popq   -0x70(%rbp)
    1806:	48 8b 45 90          	mov    -0x70(%rbp),%rax
    180a:	48 89 45 c8          	mov    %rax,-0x38(%rbp)
    180e:	fa                   	cli    
    180f:	65 8b 1c 25 00 00 00 	mov    %gs:0x0,%ebx
    1816:	00 
    1817:	39 1c 25 00 00 00 00 	cmp    %ebx,0x0
    181e:	0f 84 f6 03 00 00    	je     1c1a <vprintk_emit+0x45a>
    1824:	44 89 7d c4          	mov    %r15d,-0x3c(%rbp)
    1828:	48 c7 c7 00 00 00 00 	mov    $0x0,%rdi
    182f:	e8 00 00 00 00       	callq  1834 <vprintk_emit+0x74>
    1834:	89 1c 25 00 00 00 00 	mov    %ebx,0x0
    183b:	45 31 ff             	xor    %r15d,%r15d
    183e:	80 3c 25 00 00 00 00 	cmpb   $0x1,0x0
    1845:	01 
    1846:	b8 00 00 00 00       	mov    $0x0,%eax
    184b:	0f 84 53 04 00 00    	je     1ca4 <vprintk_emit+0x4e4>
    1851:	89 45 d0             	mov    %eax,-0x30(%rbp)
    1854:	48 c7 c3 00 00 00 00 	mov    $0x0,%rbx
    185b:	48 c7 c7 00 00 00 00 	mov    $0x0,%rdi
    1862:	be e0 03 00 00       	mov    $0x3e0,%esi
    1867:	4c 89 ea             	mov    %r13,%rdx
    186a:	4c 89 e1             	mov    %r12,%rcx
    186d:	e8 00 00 00 00       	callq  1872 <vprintk_emit+0xb2>
    1872:	4c 63 e8             	movslq %eax,%r13
    1875:	45 85 ed             	test   %r13d,%r13d
    1878:	74 22                	je     189c <vprintk_emit+0xdc>
    187a:	48 c7 c0 ff ff ff ff 	mov    $0xffffffffffffffff,%rax
    1881:	45 31 ff             	xor    %r15d,%r15d
    1884:	41 80 bc 05 00 00 00 	cmpb   $0xa,0x0(%r13,%rax,1)
    188b:	00 0a 
    188d:	49 8d 45 ff          	lea    -0x1(%r13),%rax
    1891:	41 0f 94 c7          	sete   %r15b
    1895:	4c 0f 44 e8          	cmove  %rax,%r13
    1899:	45 01 ff             	add    %r15d,%r15d
    189c:	8b 7d d4             	mov    -0x2c(%rbp),%edi
    189f:	85 ff                	test   %edi,%edi
    18a1:	75 3f                	jne    18e2 <vprintk_emit+0x122>
    18a3:	80 3c 25 00 00 00 00 	cmpb   $0x1,0x0
    18aa:	01 
    18ab:	75 35                	jne    18e2 <vprintk_emit+0x122>
    18ad:	0f be 04 25 00 00 00 	movsbl 0x0,%eax
    18b4:	00 
    18b5:	85 c0                	test   %eax,%eax
    18b7:	74 29                	je     18e2 <vprintk_emit+0x122>
    18b9:	8d 48 d0             	lea    -0x30(%rax),%ecx
    18bc:	83 f9 08             	cmp    $0x8,%ecx
    18bf:	0f 83 9e 01 00 00    	jae    1a63 <vprintk_emit+0x2a3>
    18c5:	41 83 fe ff          	cmp    $0xffffffff,%r14d
    18c9:	44 0f 44 f1          	cmove  %ecx,%r14d
    18cd:	41 83 cf 04          	or     $0x4,%r15d
    18d1:	4d 8d ad 00 00 00 00 	lea    0x0(%r13),%r13
    18d8:	48 c7 c3 00 00 00 00 	mov    $0x0,%rbx
    18df:	49 29 dd             	sub    %rbx,%r13
    18e2:	48 89 5d b8          	mov    %rbx,-0x48(%rbp)
    18e6:	41 83 fe ff          	cmp    $0xffffffff,%r14d
    18ea:	44 0f 44 34 25 00 00 	cmove  0x0,%r14d
    18f1:	00 00 
    18f3:	45 89 fc             	mov    %r15d,%r12d
    18f6:	41 83 cc 06          	or     $0x6,%r12d
    18fa:	48 83 7d b0 00       	cmpq   $0x0,-0x50(%rbp)
    18ff:	45 0f 44 e7          	cmove  %r15d,%r12d
    1903:	48 8b 04 25 00 00 00 	mov    0x0,%rax
    190a:	00 
    190b:	41 f6 c4 02          	test   $0x2,%r12b
    190f:	0f 85 95 00 00 00    	jne    19aa <vprintk_emit+0x1ea>
    1915:	48 85 c0             	test   %rax,%rax
    1918:	8b 5d c4             	mov    -0x3c(%rbp),%ebx
    191b:	0f 84 d5 01 00 00    	je     1af6 <vprintk_emit+0x336>
    1921:	41 f6 c4 04          	test   $0x4,%r12b
    1925:	75 17                	jne    193e <vprintk_emit+0x17e>
    1927:	65 48 8b 0c 25 00 00 	mov    %gs:0x0,%rcx
    192e:	00 00 
    1930:	48 39 0c 25 00 00 00 	cmp    %rcx,0x0
    1937:	00 
    1938:	0f 84 b8 01 00 00    	je     1af6 <vprintk_emit+0x336>
    193e:	f6 04 25 00 00 00 00 	testb  $0x1,0x0
    1945:	01 
    1946:	0f 85 aa 01 00 00    	jne    1af6 <vprintk_emit+0x336>
    194c:	48 83 3c 25 00 00 00 	cmpq   $0x0,0x0
    1953:	00 00 
    1955:	0f b6 3c 25 00 00 00 	movzbl 0x0,%edi
    195c:	00 
    195d:	0f b6 34 25 00 00 00 	movzbl 0x0,%esi
    1964:	00 
    1965:	0f 84 5b 01 00 00    	je     1ac6 <vprintk_emit+0x306>
    196b:	48 8b 0c 25 00 00 00 	mov    0x0,%rcx
    1972:	00 
    1973:	0f b7 c0             	movzwl %ax,%eax
    1976:	89 44 24 08          	mov    %eax,0x8(%rsp)
    197a:	48 c7 04 24 00 00 00 	movq   $0x0,(%rsp)
    1981:	00 
    1982:	ba 03 00 00 00       	mov    $0x3,%edx
    1987:	45 31 c0             	xor    %r8d,%r8d
    198a:	45 31 c9             	xor    %r9d,%r9d
    198d:	e8 7e 03 00 00       	callq  1d10 <log_store>
    1992:	c7 04 25 00 00 00 00 	movl   $0x2,0x0
    1999:	02 00 00 00 
    199d:	80 0c 25 00 00 00 00 	orb    $0x1,0x0
    19a4:	01 
    19a5:	e9 49 01 00 00       	jmpq   1af3 <vprintk_emit+0x333>
    19aa:	48 85 c0             	test   %rax,%rax
    19ad:	8b 5d c4             	mov    -0x3c(%rbp),%ebx
    19b0:	0f 84 f4 00 00 00    	je     1aaa <vprintk_emit+0x2ea>
    19b6:	48 8b 0c 25 00 00 00 	mov    0x0,%rcx
    19bd:	00 
    19be:	65 48 8b 14 25 00 00 	mov    %gs:0x0,%rdx
    19c5:	00 00 
    19c7:	45 31 ff             	xor    %r15d,%r15d
    19ca:	41 f6 c4 04          	test   $0x4,%r12b
    19ce:	75 25                	jne    19f5 <vprintk_emit+0x235>
    19d0:	48 39 d1             	cmp    %rdx,%rcx
    19d3:	75 20                	jne    19f5 <vprintk_emit+0x235>
    19d5:	8b 7d d4             	mov    -0x2c(%rbp),%edi
    19d8:	44 89 f6             	mov    %r14d,%esi
    19db:	48 8b 55 b8          	mov    -0x48(%rbp),%rdx
    19df:	4c 89 e9             	mov    %r13,%rcx
    19e2:	e8 59 06 00 00       	callq  2040 <cont_add>
    19e7:	8b 7d d4             	mov    -0x2c(%rbp),%edi
    19ea:	41 88 c7             	mov    %al,%r15b
    19ed:	48 8b 04 25 00 00 00 	mov    0x0,%rax
    19f4:	00 
    19f5:	f6 04 25 00 00 00 00 	testb  $0x1,0x0
    19fc:	01 
    19fd:	0f 85 9e 00 00 00    	jne    1aa1 <vprintk_emit+0x2e1>
    1a03:	48 85 c0             	test   %rax,%rax
    1a06:	0f 84 95 00 00 00    	je     1aa1 <vprintk_emit+0x2e1>
    1a0c:	48 83 3c 25 00 00 00 	cmpq   $0x0,0x0
    1a13:	00 00 
    1a15:	0f b6 3c 25 00 00 00 	movzbl 0x0,%edi
    1a1c:	00 
    1a1d:	0f b6 34 25 00 00 00 	movzbl 0x0,%esi
    1a24:	00 
    1a25:	74 4a                	je     1a71 <vprintk_emit+0x2b1>
    1a27:	48 8b 0c 25 00 00 00 	mov    0x0,%rcx
    1a2e:	00 
    1a2f:	0f b7 c0             	movzwl %ax,%eax
    1a32:	89 44 24 08          	mov    %eax,0x8(%rsp)
    1a36:	48 c7 04 24 00 00 00 	movq   $0x0,(%rsp)
    1a3d:	00 
    1a3e:	ba 03 00 00 00       	mov    $0x3,%edx
    1a43:	45 31 c0             	xor    %r8d,%r8d
    1a46:	45 31 c9             	xor    %r9d,%r9d
    1a49:	e8 c2 02 00 00       	callq  1d10 <log_store>
    1a4e:	c7 04 25 00 00 00 00 	movl   $0x2,0x0
    1a55:	02 00 00 00 
    1a59:	80 0c 25 00 00 00 00 	orb    $0x1,0x0
    1a60:	01 
    1a61:	eb 3b                	jmp    1a9e <vprintk_emit+0x2de>
    1a63:	83 f8 64             	cmp    $0x64,%eax
    1a66:	0f 84 61 fe ff ff    	je     18cd <vprintk_emit+0x10d>
    1a6c:	e9 71 fe ff ff       	jmpq   18e2 <vprintk_emit+0x122>
    1a71:	0f b7 c0             	movzwl %ax,%eax
    1a74:	89 44 24 08          	mov    %eax,0x8(%rsp)
    1a78:	48 c7 04 24 00 00 00 	movq   $0x0,(%rsp)
    1a7f:	00 
    1a80:	ba 02 00 00 00       	mov    $0x2,%edx
    1a85:	31 c9                	xor    %ecx,%ecx
    1a87:	45 31 c0             	xor    %r8d,%r8d
    1a8a:	45 31 c9             	xor    %r9d,%r9d
    1a8d:	e8 7e 02 00 00       	callq  1d10 <log_store>
    1a92:	48 c7 04 25 00 00 00 	movq   $0x0,0x0
    1a99:	00 00 00 00 00 
    1a9e:	8b 7d d4             	mov    -0x2c(%rbp),%edi
    1aa1:	45 84 ff             	test   %r15b,%r15b
    1aa4:	0f 85 95 00 00 00    	jne    1b3f <vprintk_emit+0x37f>
    1aaa:	48 8b 45 b8          	mov    -0x48(%rbp),%rax
    1aae:	48 89 04 24          	mov    %rax,(%rsp)
    1ab2:	41 0f b7 c5          	movzwl %r13w,%eax
    1ab6:	89 44 24 08          	mov    %eax,0x8(%rsp)
    1aba:	44 0f b7 4d a8       	movzwl -0x58(%rbp),%r9d
    1abf:	31 c9                	xor    %ecx,%ecx
    1ac1:	44 89 f6             	mov    %r14d,%esi
    1ac4:	eb 6a                	jmp    1b30 <vprintk_emit+0x370>
    1ac6:	0f b7 c0             	movzwl %ax,%eax
    1ac9:	89 44 24 08          	mov    %eax,0x8(%rsp)
    1acd:	48 c7 04 24 00 00 00 	movq   $0x0,(%rsp)
    1ad4:	00 
    1ad5:	ba 02 00 00 00       	mov    $0x2,%edx
    1ada:	31 c9                	xor    %ecx,%ecx
    1adc:	45 31 c0             	xor    %r8d,%r8d
    1adf:	45 31 c9             	xor    %r9d,%r9d
    1ae2:	e8 29 02 00 00       	callq  1d10 <log_store>
    1ae7:	48 c7 04 25 00 00 00 	movq   $0x0,0x0
    1aee:	00 00 00 00 00 
    1af3:	8b 7d d4             	mov    -0x2c(%rbp),%edi
    1af6:	41 89 ff             	mov    %edi,%r15d
    1af9:	44 89 f6             	mov    %r14d,%esi
    1afc:	44 89 75 d4          	mov    %r14d,-0x2c(%rbp)
    1b00:	4c 8b 75 b8          	mov    -0x48(%rbp),%r14
    1b04:	4c 89 f2             	mov    %r14,%rdx
    1b07:	4c 89 e9             	mov    %r13,%rcx
    1b0a:	e8 31 05 00 00       	callq  2040 <cont_add>
    1b0f:	84 c0                	test   %al,%al
    1b11:	75 2c                	jne    1b3f <vprintk_emit+0x37f>
    1b13:	41 83 cc 08          	or     $0x8,%r12d
    1b17:	4c 89 34 24          	mov    %r14,(%rsp)
    1b1b:	41 0f b7 c5          	movzwl %r13w,%eax
    1b1f:	89 44 24 08          	mov    %eax,0x8(%rsp)
    1b23:	44 0f b7 4d a8       	movzwl -0x58(%rbp),%r9d
    1b28:	31 c9                	xor    %ecx,%ecx
    1b2a:	44 89 ff             	mov    %r15d,%edi
    1b2d:	8b 75 d4             	mov    -0x2c(%rbp),%esi
    1b30:	44 89 e2             	mov    %r12d,%edx
    1b33:	4c 8b 45 b0          	mov    -0x50(%rbp),%r8
    1b37:	e8 d4 01 00 00       	callq  1d10 <log_store>
    1b3c:	41 89 c5             	mov    %eax,%r13d
    1b3f:	44 03 6d d0          	add    -0x30(%rbp),%r13d
    1b43:	48 8b 45 c8          	mov    -0x38(%rbp),%rax
    1b47:	c7 04 25 00 00 00 00 	movl   $0xffffffff,0x0
    1b4e:	ff ff ff ff 
    1b52:	c6 04 25 00 00 00 00 	movb   $0x0,0x0
    1b59:	00 
    1b5a:	48 89 45 98          	mov    %rax,-0x68(%rbp)
    1b5e:	ff 75 98             	pushq  -0x68(%rbp)
    1b61:	9d                   	popfq  
    1b62:	83 fb fe             	cmp    $0xfffffffe,%ebx
    1b65:	0f 84 8a 00 00 00    	je     1bf5 <vprintk_emit+0x435>
    1b6b:	65 8b 1c 25 00 00 00 	mov    %gs:0x0,%ebx
    1b72:	00 
    1b73:	48 c7 c7 00 00 00 00 	mov    $0x0,%rdi
    1b7a:	e8 00 00 00 00       	callq  1b7f <vprintk_emit+0x3bf>
    1b7f:	85 c0                	test   %eax,%eax
    1b81:	75 72                	jne    1bf5 <vprintk_emit+0x435>
    1b83:	80 3c 25 00 00 00 00 	cmpb   $0x1,0x0
    1b8a:	01 
    1b8b:	74 5c                	je     1be9 <vprintk_emit+0x429>
    1b8d:	c6 04 25 00 00 00 00 	movb   $0x1,0x0
    1b94:	01 
    1b95:	c6 04 25 00 00 00 00 	movb   $0x0,0x0
    1b9c:	00 
    1b9d:	48 8b 04 25 00 00 00 	mov    0x0,%rax
    1ba4:	00 
    1ba5:	89 d9                	mov    %ebx,%ecx
    1ba7:	48 0f a3 08          	bt     %rcx,(%rax)
    1bab:	19 c0                	sbb    %eax,%eax
    1bad:	85 c0                	test   %eax,%eax
    1baf:	74 07                	je     1bb8 <vprintk_emit+0x3f8>
    1bb1:	e8 00 00 00 00       	callq  1bb6 <vprintk_emit+0x3f6>
    1bb6:	eb 3d                	jmp    1bf5 <vprintk_emit+0x435>
    1bb8:	48 8b 04 25 00 00 00 	mov    0x0,%rax
    1bbf:	00 
    1bc0:	48 85 c0             	test   %rax,%rax
    1bc3:	75 14                	jne    1bd9 <vprintk_emit+0x419>
    1bc5:	eb 1a                	jmp    1be1 <vprintk_emit+0x421>
    1bc7:	66 0f 1f 84 00 00 00 	nopw   0x0(%rax,%rax,1)
    1bce:	00 00 
    1bd0:	48 8b 40 50          	mov    0x50(%rax),%rax
    1bd4:	48 85 c0             	test   %rax,%rax
    1bd7:	74 08                	je     1be1 <vprintk_emit+0x421>
    1bd9:	f6 40 40 10          	testb  $0x10,0x40(%rax)
    1bdd:	74 f1                	je     1bd0 <vprintk_emit+0x410>
    1bdf:	eb d0                	jmp    1bb1 <vprintk_emit+0x3f1>
    1be1:	c6 04 25 00 00 00 00 	movb   $0x0,0x0
    1be8:	00 
    1be9:	48 c7 c7 00 00 00 00 	mov    $0x0,%rdi
    1bf0:	e8 00 00 00 00       	callq  1bf5 <vprintk_emit+0x435>
    1bf5:	44 89 e8             	mov    %r13d,%eax
    1bf8:	48 83 c4 58          	add    $0x58,%rsp
    1bfc:	5b                   	pop    %rbx
    1bfd:	41 5c                	pop    %r12
    1bff:	41 5d                	pop    %r13
    1c01:	41 5e                	pop    %r14
    1c03:	41 5f                	pop    %r15
    1c05:	5d                   	pop    %rbp
    1c06:	c3                   	retq   
    1c07:	bf 58 89 41 00       	mov    $0x418958,%edi
    1c0c:	e8 00 00 00 00       	callq  1c11 <vprintk_emit+0x451>
    1c11:	ff cb                	dec    %ebx
    1c13:	75 f2                	jne    1c07 <vprintk_emit+0x447>
    1c15:	e9 e8 fb ff ff       	jmpq   1802 <vprintk_emit+0x42>
    1c1a:	83 3c 25 00 00 00 00 	cmpl   $0x0,0x0
    1c21:	00 
    1c22:	0f 84 bd 00 00 00    	je     1ce5 <vprintk_emit+0x525>
    1c28:	48 8b 0c 25 00 00 00 	mov    0x0,%rcx
    1c2f:	00 
    1c30:	48 8b 04 25 00 00 00 	mov    0x0,%rax
    1c37:	00 
    1c38:	48 39 c1             	cmp    %rax,%rcx
    1c3b:	78 14                	js     1c51 <vprintk_emit+0x491>
    1c3d:	48 05 30 75 00 00    	add    $0x7530,%rax
    1c43:	48 3b 04 25 00 00 00 	cmp    0x0,%rax
    1c4a:	00 
    1c4b:	0f 89 d3 fb ff ff    	jns    1824 <vprintk_emit+0x64>
    1c51:	48 8b 04 25 00 00 00 	mov    0x0,%rax
    1c58:	00 
    1c59:	48 89 04 25 00 00 00 	mov    %rax,0x0
    1c60:	00 
    1c61:	e8 00 00 00 00       	callq  1c66 <vprintk_emit+0x4a6>
    1c66:	c7 04 25 00 00 00 00 	movl   $0x0,0x0
    1c6d:	00 00 00 00 
    1c71:	c7 04 25 00 00 00 00 	movl   $0x0,0x0
    1c78:	00 00 00 00 
    1c7c:	c7 04 25 00 00 00 00 	movl   $0x1,0x0
    1c83:	01 00 00 00 
    1c87:	48 c7 04 25 00 00 00 	movq   $0x0,0x0
    1c8e:	00 00 00 00 00 
    1c93:	48 c7 04 25 00 00 00 	movq   $0x0,0x0
    1c9a:	00 00 00 00 00 
    1c9f:	e9 80 fb ff ff       	jmpq   1824 <vprintk_emit+0x64>
    1ca4:	c6 04 25 00 00 00 00 	movb   $0x0,0x0
    1cab:	00 
    1cac:	48 c7 c7 00 00 00 00 	mov    $0x0,%rdi
    1cb3:	e8 00 00 00 00       	callq  1cb8 <vprintk_emit+0x4f8>
    1cb8:	0f b7 c0             	movzwl %ax,%eax
    1cbb:	89 44 24 08          	mov    %eax,0x8(%rsp)
    1cbf:	48 c7 04 24 00 00 00 	movq   $0x0,(%rsp)
    1cc6:	00 
    1cc7:	31 ff                	xor    %edi,%edi
    1cc9:	be 02 00 00 00       	mov    $0x2,%esi
    1cce:	ba 06 00 00 00       	mov    $0x6,%edx
    1cd3:	31 c9                	xor    %ecx,%ecx
    1cd5:	45 31 c0             	xor    %r8d,%r8d
    1cd8:	45 31 c9             	xor    %r9d,%r9d
    1cdb:	e8 30 00 00 00       	callq  1d10 <log_store>
    1ce0:	e9 6c fb ff ff       	jmpq   1851 <vprintk_emit+0x91>
    1ce5:	c6 04 25 00 00 00 00 	movb   $0x1,0x0
    1cec:	01 
    1ced:	48 8b 45 c8          	mov    -0x38(%rbp),%rax
    1cf1:	48 89 45 a0          	mov    %rax,-0x60(%rbp)
    1cf5:	ff 75 a0             	pushq  -0x60(%rbp)
    1cf8:	9d                   	popfq  
    1cf9:	45 31 ed             	xor    %r13d,%r13d
    1cfc:	e9 f4 fe ff ff       	jmpq   1bf5 <vprintk_emit+0x435>
    1d01:	0f 1f 44 00 00       	nopl   0x0(%rax,%rax,1)
    1d06:	66 2e 0f 1f 84 00 00 	nopw   %cs:0x0(%rax,%rax,1)
    1d0d:	00 00 00 

0000000000001d10 <log_store>:
    1d10:	55                   	push   %rbp
    1d11:	48 89 e5             	mov    %rsp,%rbp
    1d14:	41 57                	push   %r15
    1d16:	41 56                	push   %r14
    1d18:	41 55                	push   %r13
    1d1a:	41 54                	push   %r12
    1d1c:	53                   	push   %rbx
    1d1d:	48 83 ec 48          	sub    $0x48,%rsp
    1d21:	4c 89 45 98          	mov    %r8,-0x68(%rbp)
    1d25:	49 89 cf             	mov    %rcx,%r15
    1d28:	41 89 d5             	mov    %edx,%r13d
    1d2b:	89 75 c0             	mov    %esi,-0x40(%rbp)
    1d2e:	89 7d c4             	mov    %edi,-0x3c(%rbp)
    1d31:	66 44 8b 65 18       	mov    0x18(%rbp),%r12w
    1d36:	45 0f b7 c4          	movzwl %r12w,%r8d
    1d3a:	44 89 c8             	mov    %r9d,%eax
    1d3d:	44 01 c0             	add    %r8d,%eax
    1d40:	41 bb f0 ff ff ff    	mov    $0xfffffff0,%r11d
    1d46:	41 29 c3             	sub    %eax,%r11d
    1d49:	41 83 e3 03          	and    $0x3,%r11d
    1d4d:	45 8d 54 03 10       	lea    0x10(%r11,%rax,1),%r10d
    1d52:	48 8b 34 25 00 00 00 	mov    0x0,%rsi
    1d59:	00 
    1d5a:	48 8b 3c 25 00 00 00 	mov    0x0,%rdi
    1d61:	00 
    1d62:	41 8d 4c 03 20       	lea    0x20(%r11,%rax,1),%ecx
    1d67:	48 39 fe             	cmp    %rdi,%rsi
    1d6a:	44 8b 34 25 00 00 00 	mov    0x0,%r14d
    1d71:	00 
    1d72:	8b 04 25 00 00 00 00 	mov    0x0,%eax
    1d79:	73 60                	jae    1ddb <log_store+0xcb>
    1d7b:	0f 1f 44 00 00       	nopl   0x0(%rax,%rax,1)
    1d80:	89 c2                	mov    %eax,%edx
    1d82:	44 29 f2             	sub    %r14d,%edx
    1d85:	73 0f                	jae    1d96 <log_store+0x86>
    1d87:	8b 14 25 00 00 00 00 	mov    0x0,%edx
    1d8e:	44 29 f2             	sub    %r14d,%edx
    1d91:	39 c2                	cmp    %eax,%edx
    1d93:	0f 46 d0             	cmovbe %eax,%edx
    1d96:	39 ca                	cmp    %ecx,%edx
    1d98:	0f 83 18 01 00 00    	jae    1eb6 <log_store+0x1a6>
    1d9e:	48 8b 14 25 00 00 00 	mov    0x0,%rdx
    1da5:	00 
    1da6:	89 c3                	mov    %eax,%ebx
    1da8:	0f b7 5c 1a 08       	movzwl 0x8(%rdx,%rbx,1),%ebx
    1dad:	85 db                	test   %ebx,%ebx
    1daf:	74 0f                	je     1dc0 <log_store+0xb0>
    1db1:	01 d8                	add    %ebx,%eax
    1db3:	eb 0f                	jmp    1dc4 <log_store+0xb4>
    1db5:	90                   	nop
    1db6:	66 2e 0f 1f 84 00 00 	nopw   %cs:0x0(%rax,%rax,1)
    1dbd:	00 00 00 
    1dc0:	0f b7 42 08          	movzwl 0x8(%rdx),%eax
    1dc4:	89 04 25 00 00 00 00 	mov    %eax,0x0
    1dcb:	48 ff c6             	inc    %rsi
    1dce:	48 89 34 25 00 00 00 	mov    %rsi,0x0
    1dd5:	00 
    1dd6:	48 39 fe             	cmp    %rdi,%rsi
    1dd9:	72 a5                	jb     1d80 <log_store+0x70>
    1ddb:	8b 14 25 00 00 00 00 	mov    0x0,%edx
    1de2:	89 d6                	mov    %edx,%esi
    1de4:	44 29 f6             	sub    %r14d,%esi
    1de7:	39 c6                	cmp    %eax,%esi
    1de9:	0f 46 f0             	cmovbe %eax,%esi
    1dec:	39 ce                	cmp    %ecx,%esi
    1dee:	0f 83 c2 00 00 00    	jae    1eb6 <log_store+0x1a6>
    1df4:	c1 ea 02             	shr    $0x2,%edx
    1df7:	41 39 d0             	cmp    %edx,%r8d
    1dfa:	66 45 89 c4          	mov    %r8w,%r12w
    1dfe:	66 44 0f 47 e2       	cmova  %dx,%r12w
    1e03:	48 c7 c7 00 00 00 00 	mov    $0x0,%rdi
    1e0a:	e8 00 00 00 00       	callq  1e0f <log_store+0xff>
    1e0f:	48 89 c1             	mov    %rax,%rcx
    1e12:	48 89 4d d0          	mov    %rcx,-0x30(%rbp)
    1e16:	44 01 e0             	add    %r12d,%eax
    1e19:	0f b7 c0             	movzwl %ax,%eax
    1e1c:	41 89 c3             	mov    %eax,%r11d
    1e1f:	41 f7 db             	neg    %r11d
    1e22:	41 83 e3 03          	and    $0x3,%r11d
    1e26:	46 8d 54 18 10       	lea    0x10(%rax,%r11,1),%r10d
    1e2b:	48 8b 14 25 00 00 00 	mov    0x0,%rdx
    1e32:	00 
    1e33:	48 8b 34 25 00 00 00 	mov    0x0,%rsi
    1e3a:	00 
    1e3b:	44 8b 34 25 00 00 00 	mov    0x0,%r14d
    1e42:	00 
    1e43:	8b 0c 25 00 00 00 00 	mov    0x0,%ecx
    1e4a:	42 8d 44 18 20       	lea    0x20(%rax,%r11,1),%eax
    1e4f:	48 39 f2             	cmp    %rsi,%rdx
    1e52:	72 27                	jb     1e7b <log_store+0x16b>
    1e54:	e9 b8 01 00 00       	jmpq   2011 <log_store+0x301>
    1e59:	0f 1f 80 00 00 00 00 	nopl   0x0(%rax)
    1e60:	89 0c 25 00 00 00 00 	mov    %ecx,0x0
    1e67:	48 ff c2             	inc    %rdx
    1e6a:	48 89 14 25 00 00 00 	mov    %rdx,0x0
    1e71:	00 
    1e72:	48 39 f2             	cmp    %rsi,%rdx
    1e75:	0f 83 96 01 00 00    	jae    2011 <log_store+0x301>
    1e7b:	89 cf                	mov    %ecx,%edi
    1e7d:	44 29 f7             	sub    %r14d,%edi
    1e80:	73 0f                	jae    1e91 <log_store+0x181>
    1e82:	8b 3c 25 00 00 00 00 	mov    0x0,%edi
    1e89:	44 29 f7             	sub    %r14d,%edi
    1e8c:	39 cf                	cmp    %ecx,%edi
    1e8e:	0f 46 f9             	cmovbe %ecx,%edi
    1e91:	39 c7                	cmp    %eax,%edi
    1e93:	0f 83 94 01 00 00    	jae    202d <log_store+0x31d>
    1e99:	48 8b 3c 25 00 00 00 	mov    0x0,%rdi
    1ea0:	00 
    1ea1:	89 cb                	mov    %ecx,%ebx
    1ea3:	0f b7 5c 1f 08       	movzwl 0x8(%rdi,%rbx,1),%ebx
    1ea8:	85 db                	test   %ebx,%ebx
    1eaa:	74 04                	je     1eb0 <log_store+0x1a0>
    1eac:	01 d9                	add    %ebx,%ecx
    1eae:	eb b0                	jmp    1e60 <log_store+0x150>
    1eb0:	0f b7 4f 08          	movzwl 0x8(%rdi),%ecx
    1eb4:	eb aa                	jmp    1e60 <log_store+0x150>
    1eb6:	31 c0                	xor    %eax,%eax
    1eb8:	48 89 45 d0          	mov    %rax,-0x30(%rbp)
    1ebc:	48 8b 75 10          	mov    0x10(%rbp),%rsi
    1ec0:	43 8d 04 16          	lea    (%r14,%r10,1),%eax
    1ec4:	48 83 c0 10          	add    $0x10,%rax
    1ec8:	8b 0c 25 00 00 00 00 	mov    0x0,%ecx
    1ecf:	48 39 c8             	cmp    %rcx,%rax
    1ed2:	4c 89 7d b0          	mov    %r15,-0x50(%rbp)
    1ed6:	44 89 6d c8          	mov    %r13d,-0x38(%rbp)
    1eda:	4c 89 5d a0          	mov    %r11,-0x60(%rbp)
    1ede:	4c 89 55 a8          	mov    %r10,-0x58(%rbp)
    1ee2:	44 89 4d cc          	mov    %r9d,-0x34(%rbp)
    1ee6:	76 2b                	jbe    1f13 <log_store+0x203>
    1ee8:	44 89 f7             	mov    %r14d,%edi
    1eeb:	48 03 3c 25 00 00 00 	add    0x0,%rdi
    1ef2:	00 
    1ef3:	45 31 f6             	xor    %r14d,%r14d
    1ef6:	48 89 f3             	mov    %rsi,%rbx
    1ef9:	31 f6                	xor    %esi,%esi
    1efb:	ba 10 00 00 00       	mov    $0x10,%edx
    1f00:	e8 00 00 00 00       	callq  1f05 <log_store+0x1f5>
    1f05:	48 89 de             	mov    %rbx,%rsi
    1f08:	c7 04 25 00 00 00 00 	movl   $0x0,0x0
    1f0f:	00 00 00 00 
    1f13:	4c 8b 3c 25 00 00 00 	mov    0x0,%r15
    1f1a:	00 
    1f1b:	45 89 f5             	mov    %r14d,%r13d
    1f1e:	4b 8d 04 2f          	lea    (%r15,%r13,1),%rax
    1f22:	48 89 45 b8          	mov    %rax,-0x48(%rbp)
    1f26:	41 0f b7 dc          	movzwl %r12w,%ebx
    1f2a:	4f 8d 74 2f 10       	lea    0x10(%r15,%r13,1),%r14
    1f2f:	4c 89 f7             	mov    %r14,%rdi
    1f32:	48 89 da             	mov    %rbx,%rdx
    1f35:	e8 00 00 00 00       	callq  1f3a <log_store+0x22a>
    1f3a:	66 43 89 5c 2f 0a    	mov    %bx,0xa(%r15,%r13,1)
    1f40:	4c 8b 7d d0          	mov    -0x30(%rbp),%r15
    1f44:	66 45 85 ff          	test   %r15w,%r15w
    1f48:	74 2c                	je     1f76 <log_store+0x266>
    1f4a:	41 0f b7 d7          	movzwl %r15w,%edx
    1f4e:	49 8d 3c 1e          	lea    (%r14,%rbx,1),%rdi
    1f52:	48 c7 c6 00 00 00 00 	mov    $0x0,%rsi
    1f59:	e8 00 00 00 00       	callq  1f5e <log_store+0x24e>
    1f5e:	45 01 fc             	add    %r15d,%r12d
    1f61:	48 8b 45 b8          	mov    -0x48(%rbp),%rax
    1f65:	66 44 89 60 0a       	mov    %r12w,0xa(%rax)
    1f6a:	4c 8b 7d b0          	mov    -0x50(%rbp),%r15
    1f6e:	45 89 e5             	mov    %r12d,%r13d
    1f71:	48 89 c3             	mov    %rax,%rbx
    1f74:	eb 0b                	jmp    1f81 <log_store+0x271>
    1f76:	4c 8b 7d b0          	mov    -0x50(%rbp),%r15
    1f7a:	45 89 e5             	mov    %r12d,%r13d
    1f7d:	48 8b 5d b8          	mov    -0x48(%rbp),%rbx
    1f81:	44 0f b7 65 cc       	movzwl -0x34(%rbp),%r12d
    1f86:	41 0f b7 fd          	movzwl %r13w,%edi
    1f8a:	4c 01 f7             	add    %r14,%rdi
    1f8d:	48 8b 75 98          	mov    -0x68(%rbp),%rsi
    1f91:	4c 89 e2             	mov    %r12,%rdx
    1f94:	e8 00 00 00 00       	callq  1f99 <log_store+0x289>
    1f99:	66 44 89 63 0c       	mov    %r12w,0xc(%rbx)
    1f9e:	8b 45 c4             	mov    -0x3c(%rbp),%eax
    1fa1:	88 43 0e             	mov    %al,0xe(%rbx)
    1fa4:	8b 4d c0             	mov    -0x40(%rbp),%ecx
    1fa7:	c0 e1 05             	shl    $0x5,%cl
    1faa:	8b 45 c8             	mov    -0x38(%rbp),%eax
    1fad:	24 1f                	and    $0x1f,%al
    1faf:	08 c8                	or     %cl,%al
    1fb1:	88 43 0f             	mov    %al,0xf(%rbx)
    1fb4:	4d 85 ff             	test   %r15,%r15
    1fb7:	75 0d                	jne    1fc6 <log_store+0x2b6>
    1fb9:	e8 00 00 00 00       	callq  1fbe <log_store+0x2ae>
    1fbe:	49 89 c7             	mov    %rax,%r15
    1fc1:	66 44 8b 6b 0a       	mov    0xa(%rbx),%r13w
    1fc6:	4c 89 3b             	mov    %r15,(%rbx)
    1fc9:	41 0f b7 c5          	movzwl %r13w,%eax
    1fcd:	49 01 c6             	add    %rax,%r14
    1fd0:	4d 01 e6             	add    %r12,%r14
    1fd3:	8b 55 a0             	mov    -0x60(%rbp),%edx
    1fd6:	31 f6                	xor    %esi,%esi
    1fd8:	4c 89 f7             	mov    %r14,%rdi
    1fdb:	e8 00 00 00 00       	callq  1fe0 <log_store+0x2d0>
    1fe0:	48 8b 45 a8          	mov    -0x58(%rbp),%rax
    1fe4:	66 89 43 08          	mov    %ax,0x8(%rbx)
    1fe8:	0f b7 c0             	movzwl %ax,%eax
    1feb:	01 04 25 00 00 00 00 	add    %eax,0x0
    1ff2:	48 ff 04 25 00 00 00 	incq   0x0
    1ff9:	00 
    1ffa:	44 0f b7 4b 0a       	movzwl 0xa(%rbx),%r9d
    1fff:	44 89 c8             	mov    %r9d,%eax
    2002:	48 83 c4 48          	add    $0x48,%rsp
    2006:	5b                   	pop    %rbx
    2007:	41 5c                	pop    %r12
    2009:	41 5d                	pop    %r13
    200b:	41 5e                	pop    %r14
    200d:	41 5f                	pop    %r15
    200f:	5d                   	pop    %rbp
    2010:	c3                   	retq   
    2011:	8b 14 25 00 00 00 00 	mov    0x0,%edx
    2018:	44 29 f2             	sub    %r14d,%edx
    201b:	39 ca                	cmp    %ecx,%edx
    201d:	0f 46 d1             	cmovbe %ecx,%edx
    2020:	45 31 c9             	xor    %r9d,%r9d
    2023:	39 c2                	cmp    %eax,%edx
    2025:	0f 83 91 fe ff ff    	jae    1ebc <log_store+0x1ac>
    202b:	eb d2                	jmp    1fff <log_store+0x2ef>
    202d:	45 31 c9             	xor    %r9d,%r9d
    2030:	e9 87 fe ff ff       	jmpq   1ebc <log_store+0x1ac>
    2035:	90                   	nop
    2036:	66 2e 0f 1f 84 00 00 	nopw   %cs:0x0(%rax,%rax,1)
    203d:	00 00 00 

0000000000002040 <cont_add>:
    2040:	55                   	push   %rbp
    2041:	48 89 e5             	mov    %rsp,%rbp
    2044:	41 56                	push   %r14
    2046:	53                   	push   %rbx
    2047:	48 83 ec 10          	sub    $0x10,%rsp
    204b:	48 89 cb             	mov    %rcx,%rbx
    204e:	49 89 d6             	mov    %rdx,%r14
    2051:	48 8b 04 25 00 00 00 	mov    0x0,%rax
    2058:	00 
    2059:	48 85 c0             	test   %rax,%rax
    205c:	74 0e                	je     206c <cont_add+0x2c>
    205e:	f6 04 25 00 00 00 00 	testb  $0x1,0x0
    2065:	01 
    2066:	0f 85 65 01 00 00    	jne    21d1 <cont_add+0x191>
    206c:	83 3c 25 00 00 00 00 	cmpl   $0x0,0x0
    2073:	00 
    2074:	0f 85 e3 00 00 00    	jne    215d <cont_add+0x11d>
    207a:	48 8d 0c 18          	lea    (%rax,%rbx,1),%rcx
    207e:	48 81 f9 e1 03 00 00 	cmp    $0x3e1,%rcx
    2085:	0f 83 d2 00 00 00    	jae    215d <cont_add+0x11d>
    208b:	48 85 c0             	test   %rax,%rax
    208e:	75 55                	jne    20e5 <cont_add+0xa5>
    2090:	40 88 3c 25 00 00 00 	mov    %dil,0x0
    2097:	00 
    2098:	40 88 34 25 00 00 00 	mov    %sil,0x0
    209f:	00 
    20a0:	65 48 8b 04 25 00 00 	mov    %gs:0x0,%rax
    20a7:	00 00 
    20a9:	48 89 04 25 00 00 00 	mov    %rax,0x0
    20b0:	00 
    20b1:	e8 00 00 00 00       	callq  20b6 <cont_add+0x76>
    20b6:	48 89 04 25 00 00 00 	mov    %rax,0x0
    20bd:	00 
    20be:	c7 04 25 00 00 00 00 	movl   $0x0,0x0
    20c5:	00 00 00 00 
    20c9:	48 c7 04 25 00 00 00 	movq   $0x0,0x0
    20d0:	00 00 00 00 00 
    20d5:	80 24 25 00 00 00 00 	andb   $0xfe,0x0
    20dc:	fe 
    20dd:	48 8b 04 25 00 00 00 	mov    0x0,%rax
    20e4:	00 
    20e5:	48 8d b8 00 00 00 00 	lea    0x0(%rax),%rdi
    20ec:	4c 89 f6             	mov    %r14,%rsi
    20ef:	48 89 da             	mov    %rbx,%rdx
    20f2:	e8 00 00 00 00       	callq  20f7 <cont_add+0xb7>
    20f7:	48 03 1c 25 00 00 00 	add    0x0,%rbx
    20fe:	00 
    20ff:	48 89 1c 25 00 00 00 	mov    %rbx,0x0
    2106:	00 
    2107:	41 b6 01             	mov    $0x1,%r14b
    210a:	48 81 fb 1a 03 00 00 	cmp    $0x31a,%rbx
    2111:	0f 82 00 01 00 00    	jb     2217 <cont_add+0x1d7>
    2117:	f6 04 25 00 00 00 00 	testb  $0x1,0x0
    211e:	01 
    211f:	0f 85 f2 00 00 00    	jne    2217 <cont_add+0x1d7>
    2125:	48 83 3c 25 00 00 00 	cmpq   $0x0,0x0
    212c:	00 00 
    212e:	0f b6 3c 25 00 00 00 	movzbl 0x0,%edi
    2135:	00 
    2136:	0f b6 34 25 00 00 00 	movzbl 0x0,%esi
    213d:	00 
    213e:	0f 84 a6 00 00 00    	je     21ea <cont_add+0x1aa>
    2144:	48 8b 0c 25 00 00 00 	mov    0x0,%rcx
    214b:	00 
    214c:	0f b7 c3             	movzwl %bx,%eax
    214f:	89 44 24 08          	mov    %eax,0x8(%rsp)
    2153:	48 c7 04 24 00 00 00 	movq   $0x0,(%rsp)
    215a:	00 
    215b:	eb 4f                	jmp    21ac <cont_add+0x16c>
    215d:	45 31 f6             	xor    %r14d,%r14d
    2160:	f6 04 25 00 00 00 00 	testb  $0x1,0x0
    2167:	01 
    2168:	0f 85 a9 00 00 00    	jne    2217 <cont_add+0x1d7>
    216e:	48 85 c0             	test   %rax,%rax
    2171:	0f 84 a0 00 00 00    	je     2217 <cont_add+0x1d7>
    2177:	48 83 3c 25 00 00 00 	cmpq   $0x0,0x0
    217e:	00 00 
    2180:	0f b6 3c 25 00 00 00 	movzbl 0x0,%edi
    2187:	00 
    2188:	0f b6 34 25 00 00 00 	movzbl 0x0,%esi
    218f:	00 
    2190:	74 44                	je     21d6 <cont_add+0x196>
    2192:	48 8b 0c 25 00 00 00 	mov    0x0,%rcx
    2199:	00 
    219a:	0f b7 c0             	movzwl %ax,%eax
    219d:	89 44 24 08          	mov    %eax,0x8(%rsp)
    21a1:	48 c7 04 24 00 00 00 	movq   $0x0,(%rsp)
    21a8:	00 
    21a9:	45 31 f6             	xor    %r14d,%r14d
    21ac:	ba 09 00 00 00       	mov    $0x9,%edx
    21b1:	45 31 c0             	xor    %r8d,%r8d
    21b4:	45 31 c9             	xor    %r9d,%r9d
    21b7:	e8 54 fb ff ff       	callq  1d10 <log_store>
    21bc:	c7 04 25 00 00 00 00 	movl   $0x8,0x0
    21c3:	08 00 00 00 
    21c7:	80 0c 25 00 00 00 00 	orb    $0x1,0x0
    21ce:	01 
    21cf:	eb 46                	jmp    2217 <cont_add+0x1d7>
    21d1:	45 31 f6             	xor    %r14d,%r14d
    21d4:	eb 41                	jmp    2217 <cont_add+0x1d7>
    21d6:	0f b7 c0             	movzwl %ax,%eax
    21d9:	89 44 24 08          	mov    %eax,0x8(%rsp)
    21dd:	48 c7 04 24 00 00 00 	movq   $0x0,(%rsp)
    21e4:	00 
    21e5:	45 31 f6             	xor    %r14d,%r14d
    21e8:	eb 0f                	jmp    21f9 <cont_add+0x1b9>
    21ea:	0f b7 c3             	movzwl %bx,%eax
    21ed:	89 44 24 08          	mov    %eax,0x8(%rsp)
    21f1:	48 c7 04 24 00 00 00 	movq   $0x0,(%rsp)
    21f8:	00 
    21f9:	ba 08 00 00 00       	mov    $0x8,%edx
    21fe:	31 c9                	xor    %ecx,%ecx
    2200:	45 31 c0             	xor    %r8d,%r8d
    2203:	45 31 c9             	xor    %r9d,%r9d
    2206:	e8 05 fb ff ff       	callq  1d10 <log_store>
    220b:	48 c7 04 25 00 00 00 	movq   $0x0,0x0
    2212:	00 00 00 00 00 
    2217:	44 89 f0             	mov    %r14d,%eax
    221a:	48 83 c4 10          	add    $0x10,%rsp
    221e:	5b                   	pop    %rbx
    221f:	41 5e                	pop    %r14
    2221:	5d                   	pop    %rbp
    2222:	c3                   	retq   
    2223:	0f 1f 00             	nopl   (%rax)
    2226:	66 2e 0f 1f 84 00 00 	nopw   %cs:0x0(%rax,%rax,1)
    222d:	00 00 00 

0000000000002230 <console_unlock>:
    2230:	55                   	push   %rbp
    2231:	48 89 e5             	mov    %rsp,%rbp
    2234:	41 57                	push   %r15
    2236:	41 56                	push   %r14
    2238:	41 55                	push   %r13
    223a:	41 54                	push   %r12
    223c:	53                   	push   %rbx
    223d:	48 83 ec 38          	sub    $0x38,%rsp
    2241:	80 3c 25 00 00 00 00 	cmpb   $0x1,0x0
    2248:	01 
    2249:	75 11                	jne    225c <console_unlock+0x2c>
    224b:	48 c7 c7 00 00 00 00 	mov    $0x0,%rdi
    2252:	e8 00 00 00 00       	callq  2257 <console_unlock+0x27>
    2257:	e9 93 06 00 00       	jmpq   28ef <console_unlock+0x6bf>
    225c:	8a 04 25 00 00 00 00 	mov    0x0,%al
    2263:	88 45 d7             	mov    %al,-0x29(%rbp)
    2266:	c6 04 25 00 00 00 00 	movb   $0x0,0x0
    226d:	00 
    226e:	48 c7 c7 00 00 00 00 	mov    $0x0,%rdi
    2275:	e8 00 00 00 00       	callq  227a <console_unlock+0x4a>
    227a:	49 89 c7             	mov    %rax,%r15
    227d:	4c 8b 24 25 00 00 00 	mov    0x0,%r12
    2284:	00 
    2285:	4d 85 e4             	test   %r12,%r12
    2288:	74 1f                	je     22a9 <console_unlock+0x79>
    228a:	48 8b 04 25 00 00 00 	mov    0x0,%rax
    2291:	00 
    2292:	48 3b 04 25 00 00 00 	cmp    0x0,%rax
    2299:	00 
    229a:	48 8b 04 25 00 00 00 	mov    0x0,%rax
    22a1:	00 
    22a2:	73 19                	jae    22bd <console_unlock+0x8d>
    22a4:	48 85 c0             	test   %rax,%rax
    22a7:	75 14                	jne    22bd <console_unlock+0x8d>
    22a9:	48 c7 c7 00 00 00 00 	mov    $0x0,%rdi
    22b0:	4c 89 fe             	mov    %r15,%rsi
    22b3:	e8 00 00 00 00       	callq  22b8 <console_unlock+0x88>
    22b8:	e9 e4 01 00 00       	jmpq   24a1 <console_unlock+0x271>
    22bd:	48 85 c0             	test   %rax,%rax
    22c0:	74 0d                	je     22cf <console_unlock+0x9f>
    22c2:	b9 00 04 00 00       	mov    $0x400,%ecx
    22c7:	45 31 f6             	xor    %r14d,%r14d
    22ca:	e9 a5 00 00 00       	jmpq   2374 <console_unlock+0x144>
    22cf:	f6 04 25 00 00 00 00 	testb  $0x2,0x0
    22d6:	02 
    22d7:	75 0f                	jne    22e8 <console_unlock+0xb8>
    22d9:	b9 00 04 00 00       	mov    $0x400,%ecx
    22de:	31 c0                	xor    %eax,%eax
    22e0:	45 31 f6             	xor    %r14d,%r14d
    22e3:	e9 8c 00 00 00       	jmpq   2374 <console_unlock+0x144>
    22e8:	80 3c 25 00 00 00 00 	cmpb   $0x0,0x0
    22ef:	00 
    22f0:	74 75                	je     2367 <console_unlock+0x137>
    22f2:	48 8b 0c 25 00 00 00 	mov    0x0,%rcx
    22f9:	00 
    22fa:	48 89 c8             	mov    %rcx,%rax
    22fd:	48 c1 e8 09          	shr    $0x9,%rax
    2301:	48 ba 53 5a 9b a0 2f 	movabs $0x44b82fa09b5a53,%rdx
    2308:	b8 44 00 
    230b:	48 f7 e2             	mul    %rdx
    230e:	48 89 d3             	mov    %rdx,%rbx
    2311:	48 c1 eb 0b          	shr    $0xb,%rbx
    2315:	48 69 c3 00 ca 9a 3b 	imul   $0x3b9aca00,%rbx,%rax
    231c:	48 29 c1             	sub    %rax,%rcx
    231f:	48 c1 e9 03          	shr    $0x3,%rcx
    2323:	48 ba cf f7 53 e3 a5 	movabs $0x20c49ba5e353f7cf,%rdx
    232a:	9b c4 20 
    232d:	48 89 c8             	mov    %rcx,%rax
    2330:	48 f7 e2             	mul    %rdx
    2333:	48 89 d1             	mov    %rdx,%rcx
    2336:	48 c1 e9 04          	shr    $0x4,%rcx
    233a:	48 c7 c7 00 00 00 00 	mov    $0x0,%rdi
    2341:	48 c7 c6 00 00 00 00 	mov    $0x0,%rsi
    2348:	31 c0                	xor    %eax,%eax
    234a:	48 89 da             	mov    %rbx,%rdx
    234d:	e8 00 00 00 00       	callq  2352 <console_unlock+0x122>
    2352:	4c 63 f0             	movslq %eax,%r14
    2355:	48 8b 04 25 00 00 00 	mov    0x0,%rax
    235c:	00 
    235d:	4c 8b 24 25 00 00 00 	mov    0x0,%r12
    2364:	00 
    2365:	eb 05                	jmp    236c <console_unlock+0x13c>
    2367:	31 c0                	xor    %eax,%eax
    2369:	45 31 f6             	xor    %r14d,%r14d
    236c:	b9 00 04 00 00       	mov    $0x400,%ecx
    2371:	4c 29 f1             	sub    %r14,%rcx
    2374:	4c 89 e2             	mov    %r12,%rdx
    2377:	48 29 c2             	sub    %rax,%rdx
    237a:	74 30                	je     23ac <console_unlock+0x17c>
    237c:	48 8d 72 01          	lea    0x1(%rdx),%rsi
    2380:	48 39 ce             	cmp    %rcx,%rsi
    2383:	48 8d 59 ff          	lea    -0x1(%rcx),%rbx
    2387:	48 0f 46 da          	cmovbe %rdx,%rbx
    238b:	49 8d be 00 00 00 00 	lea    0x0(%r14),%rdi
    2392:	48 8d b0 00 00 00 00 	lea    0x0(%rax),%rsi
    2399:	48 89 da             	mov    %rbx,%rdx
    239c:	e8 00 00 00 00       	callq  23a1 <console_unlock+0x171>
    23a1:	49 01 de             	add    %rbx,%r14
    23a4:	4c 89 24 25 00 00 00 	mov    %r12,0x0
    23ab:	00 
    23ac:	f6 04 25 00 00 00 00 	testb  $0x1,0x0
    23b3:	01 
    23b4:	74 21                	je     23d7 <console_unlock+0x1a7>
    23b6:	f6 04 25 00 00 00 00 	testb  $0x2,0x0
    23bd:	02 
    23be:	74 0b                	je     23cb <console_unlock+0x19b>
    23c0:	41 c6 86 00 00 00 00 	movb   $0xa,0x0(%r14)
    23c7:	0a 
    23c8:	49 ff c6             	inc    %r14
    23cb:	48 c7 04 25 00 00 00 	movq   $0x0,0x0
    23d2:	00 00 00 00 00 
    23d7:	c6 04 25 00 00 00 00 	movb   $0x0,0x0
    23de:	00 
    23df:	0f b6 04 25 00 00 00 	movzbl 0x0,%eax
    23e6:	00 
    23e7:	39 04 25 00 00 00 00 	cmp    %eax,0x0
    23ee:	7f 0f                	jg     23ff <console_unlock+0x1cf>
    23f0:	8a 04 25 00 00 00 00 	mov    0x0,%al
    23f7:	84 c0                	test   %al,%al
    23f9:	0f 84 9a 00 00 00    	je     2499 <console_unlock+0x269>
    23ff:	48 8b 1c 25 00 00 00 	mov    0x0,%rbx
    2406:	00 
    2407:	48 85 db             	test   %rbx,%rbx
    240a:	0f 84 89 00 00 00    	je     2499 <console_unlock+0x269>
    2410:	4c 8b 24 25 00 00 00 	mov    0x0,%r12
    2417:	00 
    2418:	0f 1f 84 00 00 00 00 	nopl   0x0(%rax,%rax,1)
    241f:	00 
    2420:	48 8b 04 25 00 00 00 	mov    0x0,%rax
    2427:	00 
    2428:	48 85 c0             	test   %rax,%rax
    242b:	74 05                	je     2432 <console_unlock+0x202>
    242d:	48 39 c3             	cmp    %rax,%rbx
    2430:	75 5e                	jne    2490 <console_unlock+0x260>
    2432:	f6 43 40 04          	testb  $0x4,0x40(%rbx)
    2436:	74 58                	je     2490 <console_unlock+0x260>
    2438:	48 83 7b 10 00       	cmpq   $0x0,0x10(%rbx)
    243d:	74 51                	je     2490 <console_unlock+0x260>
    243f:	65 8b 04 25 00 00 00 	mov    %gs:0x0,%eax
    2446:	00 
    2447:	89 c0                	mov    %eax,%eax
    2449:	49 0f a3 04 24       	bt     %rax,(%r12)
    244e:	19 c9                	sbb    %ecx,%ecx
    2450:	0f b7 43 40          	movzwl 0x40(%rbx),%eax
    2454:	85 c9                	test   %ecx,%ecx
    2456:	75 0a                	jne    2462 <console_unlock+0x232>
    2458:	89 c1                	mov    %eax,%ecx
    245a:	83 e1 10             	and    $0x10,%ecx
    245d:	66 85 c9             	test   %cx,%cx
    2460:	74 2e                	je     2490 <console_unlock+0x260>
    2462:	a8 40                	test   $0x40,%al
    2464:	48 8b 43 10          	mov    0x10(%rbx),%rax
    2468:	75 0f                	jne    2479 <console_unlock+0x249>
    246a:	48 c7 c6 00 00 00 00 	mov    $0x0,%rsi
    2471:	48 89 df             	mov    %rbx,%rdi
    2474:	44 89 f2             	mov    %r14d,%edx
    2477:	eb 07                	jmp    2480 <console_unlock+0x250>
    2479:	31 f6                	xor    %esi,%esi
    247b:	31 d2                	xor    %edx,%edx
    247d:	48 89 df             	mov    %rbx,%rdi
    2480:	ff d0                	callq  *%rax
    2482:	0f 1f 40 00          	nopl   0x0(%rax)
    2486:	66 2e 0f 1f 84 00 00 	nopw   %cs:0x0(%rax,%rax,1)
    248d:	00 00 00 
    2490:	48 8b 5b 50          	mov    0x50(%rbx),%rbx
    2494:	48 85 db             	test   %rbx,%rbx
    2497:	75 87                	jne    2420 <console_unlock+0x1f0>
    2499:	4c 89 7d a8          	mov    %r15,-0x58(%rbp)
    249d:	ff 75 a8             	pushq  -0x58(%rbp)
    24a0:	9d                   	popfq  
    24a1:	4c 8b 3c 25 00 00 00 	mov    0x0,%r15
    24a8:	00 
    24a9:	31 c0                	xor    %eax,%eax
    24ab:	48 89 45 c8          	mov    %rax,-0x38(%rbp)
    24af:	e9 d1 00 00 00       	jmpq   2585 <console_unlock+0x355>
    24b4:	66 90                	xchg   %ax,%ax
    24b6:	66 2e 0f 1f 84 00 00 	nopw   %cs:0x0(%rax,%rax,1)
    24bd:	00 00 00 
    24c0:	48 8b 45 b8          	mov    -0x48(%rbp),%rax
    24c4:	48 89 45 b0          	mov    %rax,-0x50(%rbp)
    24c8:	ff 75 b0             	pushq  -0x50(%rbp)
    24cb:	9d                   	popfq  
    24cc:	f6 45 d7 01          	testb  $0x1,-0x29(%rbp)
    24d0:	0f 84 af 00 00 00    	je     2585 <console_unlock+0x355>
    24d6:	e9 a5 00 00 00       	jmpq   2580 <console_unlock+0x350>
    24db:	c6 04 25 00 00 00 00 	movb   $0x0,0x0
    24e2:	00 
    24e3:	48 83 3c 25 00 00 00 	cmpq   $0x0,0x0
    24ea:	00 00 
    24ec:	75 7c                	jne    256a <console_unlock+0x33a>
    24ee:	c6 04 25 00 00 00 00 	movb   $0x0,0x0
    24f5:	00 
    24f6:	48 c7 c7 00 00 00 00 	mov    $0x0,%rdi
    24fd:	e8 00 00 00 00       	callq  2502 <console_unlock+0x2d2>
    2502:	48 c7 c7 00 00 00 00 	mov    $0x0,%rdi
    2509:	e8 00 00 00 00       	callq  250e <console_unlock+0x2de>
    250e:	4c 8b 34 25 00 00 00 	mov    0x0,%r14
    2515:	00 
    2516:	48 8b 1c 25 00 00 00 	mov    0x0,%rbx
    251d:	00 
    251e:	48 c7 c7 00 00 00 00 	mov    $0x0,%rdi
    2525:	4c 89 e6             	mov    %r12,%rsi
    2528:	e8 00 00 00 00       	callq  252d <console_unlock+0x2fd>
    252d:	49 39 de             	cmp    %rbx,%r14
    2530:	0f 84 84 03 00 00    	je     28ba <console_unlock+0x68a>
    2536:	48 c7 c7 00 00 00 00 	mov    $0x0,%rdi
    253d:	e8 00 00 00 00       	callq  2542 <console_unlock+0x312>
    2542:	85 c0                	test   %eax,%eax
    2544:	0f 85 70 03 00 00    	jne    28ba <console_unlock+0x68a>
    254a:	80 3c 25 00 00 00 00 	cmpb   $0x1,0x0
    2551:	01 
    2552:	0f 84 56 03 00 00    	je     28ae <console_unlock+0x67e>
    2558:	c6 04 25 00 00 00 00 	movb   $0x1,0x0
    255f:	01 
    2560:	c6 04 25 00 00 00 00 	movb   $0x0,0x0
    2567:	00 
    2568:	eb 1b                	jmp    2585 <console_unlock+0x355>
    256a:	48 c7 04 25 00 00 00 	movq   $0x0,0x0
    2571:	00 00 00 00 00 
    2576:	e9 73 ff ff ff       	jmpq   24ee <console_unlock+0x2be>
    257b:	0f 1f 44 00 00       	nopl   0x0(%rax,%rax,1)
    2580:	e8 00 00 00 00       	callq  2585 <console_unlock+0x355>
    2585:	48 c7 c7 00 00 00 00 	mov    $0x0,%rdi
    258c:	e8 00 00 00 00       	callq  2591 <console_unlock+0x361>
    2591:	49 89 c4             	mov    %rax,%r12
    2594:	48 8b 04 25 00 00 00 	mov    0x0,%rax
    259b:	00 
    259c:	48 39 04 25 00 00 00 	cmp    %rax,0x0
    25a3:	00 
    25a4:	74 0e                	je     25b4 <console_unlock+0x384>
    25a6:	48 89 04 25 00 00 00 	mov    %rax,0x0
    25ad:	00 
    25ae:	b1 01                	mov    $0x1,%cl
    25b0:	48 89 4d c8          	mov    %rcx,-0x38(%rbp)
    25b4:	48 8b 0c 25 00 00 00 	mov    0x0,%rcx
    25bb:	00 
    25bc:	48 8b 14 25 00 00 00 	mov    0x0,%rdx
    25c3:	00 
    25c4:	48 39 ca             	cmp    %rcx,%rdx
    25c7:	76 47                	jbe    2610 <console_unlock+0x3e0>
    25c9:	29 ca                	sub    %ecx,%edx
    25cb:	31 db                	xor    %ebx,%ebx
    25cd:	48 c7 c7 00 00 00 00 	mov    $0x0,%rdi
    25d4:	48 c7 c6 00 00 00 00 	mov    $0x0,%rsi
    25db:	31 c0                	xor    %eax,%eax
    25dd:	e8 00 00 00 00       	callq  25e2 <console_unlock+0x3b2>
    25e2:	4c 63 c8             	movslq %eax,%r9
    25e5:	48 8b 0c 25 00 00 00 	mov    0x0,%rcx
    25ec:	00 
    25ed:	48 89 0c 25 00 00 00 	mov    %rcx,0x0
    25f4:	00 
    25f5:	8b 04 25 00 00 00 00 	mov    0x0,%eax
    25fc:	89 04 25 00 00 00 00 	mov    %eax,0x0
    2603:	48 8b 04 25 00 00 00 	mov    0x0,%rax
    260a:	00 
    260b:	eb 13                	jmp    2620 <console_unlock+0x3f0>
    260d:	0f 1f 00             	nopl   (%rax)
    2610:	45 31 c9             	xor    %r9d,%r9d
    2613:	48 39 c1             	cmp    %rax,%rcx
    2616:	75 18                	jne    2630 <console_unlock+0x400>
    2618:	e9 be fe ff ff       	jmpq   24db <console_unlock+0x2ab>
    261d:	0f 1f 00             	nopl   (%rax)
    2620:	89 1c 25 00 00 00 00 	mov    %ebx,0x0
    2627:	48 39 c1             	cmp    %rax,%rcx
    262a:	0f 84 ab fe ff ff    	je     24db <console_unlock+0x2ab>
    2630:	8b 34 25 00 00 00 00 	mov    0x0,%esi
    2637:	48 8b 3c 25 00 00 00 	mov    0x0,%rdi
    263e:	00 
    263f:	48 8d 1c 37          	lea    (%rdi,%rsi,1),%rbx
    2643:	0f b7 54 37 08       	movzwl 0x8(%rdi,%rsi,1),%edx
    2648:	85 d2                	test   %edx,%edx
    264a:	48 0f 44 df          	cmove  %rdi,%rbx
    264e:	44 8a 73 0f          	mov    0xf(%rbx),%r14b
    2652:	41 f6 c6 01          	test   $0x1,%r14b
    2656:	0f 85 04 01 00 00    	jne    2760 <console_unlock+0x530>
    265c:	41 c0 ee 05          	shr    $0x5,%r14b
    2660:	8b 34 25 00 00 00 00 	mov    0x0,%esi
    2667:	49 8d 89 00 00 00 00 	lea    0x0(%r9),%rcx
    266e:	41 b8 00 04 00 00    	mov    $0x400,%r8d
    2674:	4d 89 cd             	mov    %r9,%r13
    2677:	4d 29 c8             	sub    %r9,%r8
    267a:	31 d2                	xor    %edx,%edx
    267c:	48 89 df             	mov    %rbx,%rdi
    267f:	e8 bc ec ff ff       	callq  1340 <msg_print_text>
    2684:	48 89 45 c0          	mov    %rax,-0x40(%rbp)
    2688:	83 3c 25 00 00 00 00 	cmpl   $0x0,0x0
    268f:	00 
    2690:	4c 89 65 b8          	mov    %r12,-0x48(%rbp)
    2694:	0f 84 d6 00 00 00    	je     2770 <console_unlock+0x540>
    269a:	4c 8b 04 25 00 00 00 	mov    0x0,%r8
    26a1:	00 
    26a2:	8b 0c 25 00 00 00 00 	mov    0x0,%ecx
    26a9:	48 8b 03             	mov    (%rbx),%rax
    26ac:	48 c1 e8 03          	shr    $0x3,%rax
    26b0:	48 ba cf f7 53 e3 a5 	movabs $0x20c49ba5e353f7cf,%rdx
    26b7:	9b c4 20 
    26ba:	48 f7 e2             	mul    %rdx
    26bd:	49 89 d1             	mov    %rdx,%r9
    26c0:	49 c1 e9 04          	shr    $0x4,%r9
    26c4:	8a 43 0f             	mov    0xf(%rbx),%al
    26c7:	83 e1 08             	and    $0x8,%ecx
    26ca:	75 0c                	jne    26d8 <console_unlock+0x4a8>
    26cc:	89 c2                	mov    %eax,%edx
    26ce:	80 e2 08             	and    $0x8,%dl
    26d1:	be 63 00 00 00       	mov    $0x63,%esi
    26d6:	75 20                	jne    26f8 <console_unlock+0x4c8>
    26d8:	89 c2                	mov    %eax,%edx
    26da:	80 e2 1f             	and    $0x1f,%dl
    26dd:	f6 c2 08             	test   $0x8,%dl
    26e0:	75 11                	jne    26f3 <console_unlock+0x4c3>
    26e2:	be 2d 00 00 00       	mov    $0x2d,%esi
    26e7:	85 c9                	test   %ecx,%ecx
    26e9:	74 0d                	je     26f8 <console_unlock+0x4c8>
    26eb:	0f b6 ca             	movzbl %dl,%ecx
    26ee:	83 e1 04             	and    $0x4,%ecx
    26f1:	75 05                	jne    26f8 <console_unlock+0x4c8>
    26f3:	be 2b 00 00 00       	mov    $0x2b,%esi
    26f8:	0f b6 4b 0e          	movzbl 0xe(%rbx),%ecx
    26fc:	c0 e8 05             	shr    $0x5,%al
    26ff:	0f b6 c0             	movzbl %al,%eax
    2702:	8d 0c c8             	lea    (%rax,%rcx,8),%ecx
    2705:	89 34 24             	mov    %esi,(%rsp)
    2708:	48 c7 c7 00 00 00 00 	mov    $0x0,%rdi
    270f:	be 00 20 00 00       	mov    $0x2000,%esi
    2714:	48 c7 c2 00 00 00 00 	mov    $0x0,%rdx
    271b:	31 c0                	xor    %eax,%eax
    271d:	e8 00 00 00 00       	callq  2722 <console_unlock+0x4f2>
    2722:	4c 63 f8             	movslq %eax,%r15
    2725:	49 8d bf 00 00 00 00 	lea    0x0(%r15),%rdi
    272c:	be 00 20 00 00       	mov    $0x2000,%esi
    2731:	4c 29 fe             	sub    %r15,%rsi
    2734:	4c 8d 43 10          	lea    0x10(%rbx),%r8
    2738:	44 0f b7 4b 0a       	movzwl 0xa(%rbx),%r9d
    273d:	4a 8d 54 0b 10       	lea    0x10(%rbx,%r9,1),%rdx
    2742:	0f b7 4b 0c          	movzwl 0xc(%rbx),%ecx
    2746:	e8 75 07 00 00       	callq  2ec0 <msg_print_ext_body>
    274b:	49 89 c4             	mov    %rax,%r12
    274e:	4d 01 fc             	add    %r15,%r12
    2751:	4c 8b 3c 25 00 00 00 	mov    0x0,%r15
    2758:	00 
    2759:	eb 18                	jmp    2773 <console_unlock+0x543>
    275b:	0f 1f 44 00 00       	nopl   0x0(%rax,%rax,1)
    2760:	66 85 d2             	test   %dx,%dx
    2763:	74 3b                	je     27a0 <console_unlock+0x570>
    2765:	01 f2                	add    %esi,%edx
    2767:	eb 3b                	jmp    27a4 <console_unlock+0x574>
    2769:	0f 1f 80 00 00 00 00 	nopl   0x0(%rax)
    2770:	45 31 e4             	xor    %r12d,%r12d
    2773:	41 0f b6 c6          	movzbl %r14b,%eax
    2777:	8b 14 25 00 00 00 00 	mov    0x0,%edx
    277e:	48 8b 34 25 00 00 00 	mov    0x0,%rsi
    2785:	00 
    2786:	0f b7 4c 16 08       	movzwl 0x8(%rsi,%rdx,1),%ecx
    278b:	85 c9                	test   %ecx,%ecx
    278d:	74 41                	je     27d0 <console_unlock+0x5a0>
    278f:	01 d1                	add    %edx,%ecx
    2791:	eb 41                	jmp    27d4 <console_unlock+0x5a4>
    2793:	0f 1f 00             	nopl   (%rax)
    2796:	66 2e 0f 1f 84 00 00 	nopw   %cs:0x0(%rax,%rax,1)
    279d:	00 00 00 
    27a0:	0f b7 57 08          	movzwl 0x8(%rdi),%edx
    27a4:	89 14 25 00 00 00 00 	mov    %edx,0x0
    27ab:	48 ff c1             	inc    %rcx
    27ae:	48 89 0c 25 00 00 00 	mov    %rcx,0x0
    27b5:	00 
    27b6:	44 89 f2             	mov    %r14d,%edx
    27b9:	80 e2 1e             	and    $0x1e,%dl
    27bc:	41 80 e6 fe          	and    $0xfe,%r14b
    27c0:	44 88 73 0f          	mov    %r14b,0xf(%rbx)
    27c4:	0f b6 da             	movzbl %dl,%ebx
    27c7:	e9 54 fe ff ff       	jmpq   2620 <console_unlock+0x3f0>
    27cc:	0f 1f 40 00          	nopl   0x0(%rax)
    27d0:	0f b7 4e 08          	movzwl 0x8(%rsi),%ecx
    27d4:	4c 8b 75 c0          	mov    -0x40(%rbp),%r14
    27d8:	89 0c 25 00 00 00 00 	mov    %ecx,0x0
    27df:	48 ff 04 25 00 00 00 	incq   0x0
    27e6:	00 
    27e7:	0f b6 4b 0f          	movzbl 0xf(%rbx),%ecx
    27eb:	83 e1 1f             	and    $0x1f,%ecx
    27ee:	89 0c 25 00 00 00 00 	mov    %ecx,0x0
    27f5:	c6 04 25 00 00 00 00 	movb   $0x0,0x0
    27fc:	00 
    27fd:	39 04 25 00 00 00 00 	cmp    %eax,0x0
    2804:	7f 0f                	jg     2815 <console_unlock+0x5e5>
    2806:	8a 04 25 00 00 00 00 	mov    0x0,%al
    280d:	84 c0                	test   %al,%al
    280f:	0f 84 ab fc ff ff    	je     24c0 <console_unlock+0x290>
    2815:	48 8b 1c 25 00 00 00 	mov    0x0,%rbx
    281c:	00 
    281d:	48 85 db             	test   %rbx,%rbx
    2820:	0f 84 9a fc ff ff    	je     24c0 <console_unlock+0x290>
    2826:	4d 01 ee             	add    %r13,%r14
    2829:	0f 1f 80 00 00 00 00 	nopl   0x0(%rax)
    2830:	48 8b 04 25 00 00 00 	mov    0x0,%rax
    2837:	00 
    2838:	48 85 c0             	test   %rax,%rax
    283b:	74 05                	je     2842 <console_unlock+0x612>
    283d:	48 39 c3             	cmp    %rax,%rbx
    2840:	75 5e                	jne    28a0 <console_unlock+0x670>
    2842:	f6 43 40 04          	testb  $0x4,0x40(%rbx)
    2846:	74 58                	je     28a0 <console_unlock+0x670>
    2848:	48 83 7b 10 00       	cmpq   $0x0,0x10(%rbx)
    284d:	74 51                	je     28a0 <console_unlock+0x670>
    284f:	65 8b 04 25 00 00 00 	mov    %gs:0x0,%eax
    2856:	00 
    2857:	89 c0                	mov    %eax,%eax
    2859:	49 0f a3 07          	bt     %rax,(%r15)
    285d:	19 c9                	sbb    %ecx,%ecx
    285f:	0f b7 43 40          	movzwl 0x40(%rbx),%eax
    2863:	85 c9                	test   %ecx,%ecx
    2865:	75 0a                	jne    2871 <console_unlock+0x641>
    2867:	89 c1                	mov    %eax,%ecx
    2869:	83 e1 10             	and    $0x10,%ecx
    286c:	66 85 c9             	test   %cx,%cx
    286f:	74 2f                	je     28a0 <console_unlock+0x670>
    2871:	a8 40                	test   $0x40,%al
    2873:	48 8b 43 10          	mov    0x10(%rbx),%rax
    2877:	75 0f                	jne    2888 <console_unlock+0x658>
    2879:	48 c7 c6 00 00 00 00 	mov    $0x0,%rsi
    2880:	48 89 df             	mov    %rbx,%rdi
    2883:	44 89 f2             	mov    %r14d,%edx
    2886:	eb 0d                	jmp    2895 <console_unlock+0x665>
    2888:	48 c7 c6 00 00 00 00 	mov    $0x0,%rsi
    288f:	48 89 df             	mov    %rbx,%rdi
    2892:	44 89 e2             	mov    %r12d,%edx
    2895:	ff d0                	callq  *%rax
    2897:	66 0f 1f 84 00 00 00 	nopw   0x0(%rax,%rax,1)
    289e:	00 00 
    28a0:	48 8b 5b 50          	mov    0x50(%rbx),%rbx
    28a4:	48 85 db             	test   %rbx,%rbx
    28a7:	75 87                	jne    2830 <console_unlock+0x600>
    28a9:	e9 12 fc ff ff       	jmpq   24c0 <console_unlock+0x290>
    28ae:	48 c7 c7 00 00 00 00 	mov    $0x0,%rdi
    28b5:	e8 00 00 00 00       	callq  28ba <console_unlock+0x68a>
    28ba:	f6 45 c8 01          	testb  $0x1,-0x38(%rbp)
    28be:	74 2f                	je     28ef <console_unlock+0x6bf>
    28c0:	48 c7 c0 00 00 00 00 	mov    $0x0,%rax
    28c7:	48 39 04 25 00 00 00 	cmp    %rax,0x0
    28ce:	00 
    28cf:	74 1e                	je     28ef <console_unlock+0x6bf>
    28d1:	65 83 0c 25 00 00 00 	orl    $0x1,%gs:0x0
    28d8:	00 01 
    28da:	48 c7 c7 00 00 00 00 	mov    $0x0,%rdi
    28e1:	65 48 03 3c 25 00 00 	add    %gs:0x0,%rdi
    28e8:	00 00 
    28ea:	e8 00 00 00 00       	callq  28ef <console_unlock+0x6bf>
    28ef:	48 83 c4 38          	add    $0x38,%rsp
    28f3:	5b                   	pop    %rbx
    28f4:	41 5c                	pop    %r12
    28f6:	41 5d                	pop    %r13
    28f8:	41 5e                	pop    %r14
    28fa:	41 5f                	pop    %r15
    28fc:	5d                   	pop    %rbp
    28fd:	c3                   	retq   
    28fe:	66 90                	xchg   %ax,%ax

0000000000002900 <vprintk>:
    2900:	55                   	push   %rbp
    2901:	48 89 e5             	mov    %rsp,%rbp
    2904:	49 89 f1             	mov    %rsi,%r9
    2907:	48 89 f8             	mov    %rdi,%rax
    290a:	31 ff                	xor    %edi,%edi
    290c:	be ff ff ff ff       	mov    $0xffffffff,%esi
    2911:	31 d2                	xor    %edx,%edx
    2913:	31 c9                	xor    %ecx,%ecx
    2915:	49 89 c0             	mov    %rax,%r8
    2918:	e8 00 00 00 00       	callq  291d <vprintk+0x1d>
    291d:	5d                   	pop    %rbp
    291e:	c3                   	retq   
    291f:	90                   	nop

0000000000002920 <printk_emit>:
    2920:	55                   	push   %rbp
    2921:	48 89 e5             	mov    %rsp,%rbp
    2924:	53                   	push   %rbx
    2925:	48 83 ec 48          	sub    $0x48,%rsp
    2929:	4c 89 4d d8          	mov    %r9,-0x28(%rbp)
    292d:	48 8d 45 b0          	lea    -0x50(%rbp),%rax
    2931:	48 89 45 f0          	mov    %rax,-0x10(%rbp)
    2935:	48 8d 45 10          	lea    0x10(%rbp),%rax
    2939:	48 89 45 e8          	mov    %rax,-0x18(%rbp)
    293d:	c7 45 e4 30 00 00 00 	movl   $0x30,-0x1c(%rbp)
    2944:	c7 45 e0 28 00 00 00 	movl   $0x28,-0x20(%rbp)
    294b:	4c 8d 4d e0          	lea    -0x20(%rbp),%r9
    294f:	e8 00 00 00 00       	callq  2954 <printk_emit+0x34>
    2954:	89 c3                	mov    %eax,%ebx
    2956:	48 89 ef             	mov    %rbp,%rdi
    2959:	e8 00 00 00 00       	callq  295e <printk_emit+0x3e>
    295e:	48 ff 45 08          	incq   0x8(%rbp)
    2962:	48 ff 4d 08          	decq   0x8(%rbp)
    2966:	90                   	nop
    2967:	90                   	nop
    2968:	90                   	nop
    2969:	90                   	nop
    296a:	89 d8                	mov    %ebx,%eax
    296c:	48 83 c4 48          	add    $0x48,%rsp
    2970:	5b                   	pop    %rbx
    2971:	5d                   	pop    %rbp
    2972:	c3                   	retq   
    2973:	0f 1f 00             	nopl   (%rax)
    2976:	66 2e 0f 1f 84 00 00 	nopw   %cs:0x0(%rax,%rax,1)
    297d:	00 00 00 

0000000000002980 <vprintk_default>:
    2980:	55                   	push   %rbp
    2981:	48 89 e5             	mov    %rsp,%rbp
    2984:	49 89 f1             	mov    %rsi,%r9
    2987:	48 89 f8             	mov    %rdi,%rax
    298a:	31 ff                	xor    %edi,%edi
    298c:	be ff ff ff ff       	mov    $0xffffffff,%esi
    2991:	31 d2                	xor    %edx,%edx
    2993:	31 c9                	xor    %ecx,%ecx
    2995:	49 89 c0             	mov    %rax,%r8
    2998:	e8 00 00 00 00       	callq  299d <vprintk_default+0x1d>
    299d:	5d                   	pop    %rbp
    299e:	c3                   	retq   
    299f:	90                   	nop

00000000000029a0 <early_printk>:
    29a0:	55                   	push   %rbp
    29a1:	48 89 e5             	mov    %rsp,%rbp
    29a4:	53                   	push   %rbx
    29a5:	48 81 ec 48 02 00 00 	sub    $0x248,%rsp
    29ac:	48 89 f8             	mov    %rdi,%rax
    29af:	4c 89 4d d8          	mov    %r9,-0x28(%rbp)
    29b3:	4c 89 45 d0          	mov    %r8,-0x30(%rbp)
    29b7:	48 89 4d c8          	mov    %rcx,-0x38(%rbp)
    29bb:	48 89 55 c0          	mov    %rdx,-0x40(%rbp)
    29bf:	48 89 75 b8          	mov    %rsi,-0x48(%rbp)
    29c3:	48 83 3c 25 00 00 00 	cmpq   $0x0,0x0
    29ca:	00 00 
    29cc:	74 49                	je     2a17 <early_printk+0x77>
    29ce:	48 8d 4d b0          	lea    -0x50(%rbp),%rcx
    29d2:	48 89 4d f0          	mov    %rcx,-0x10(%rbp)
    29d6:	48 8d 4d 10          	lea    0x10(%rbp),%rcx
    29da:	48 89 4d e8          	mov    %rcx,-0x18(%rbp)
    29de:	c7 45 e4 30 00 00 00 	movl   $0x30,-0x1c(%rbp)
    29e5:	c7 45 e0 08 00 00 00 	movl   $0x8,-0x20(%rbp)
    29ec:	48 8d 9d b0 fd ff ff 	lea    -0x250(%rbp),%rbx
    29f3:	48 8d 4d e0          	lea    -0x20(%rbp),%rcx
    29f7:	be 00 02 00 00       	mov    $0x200,%esi
    29fc:	48 89 df             	mov    %rbx,%rdi
    29ff:	48 89 c2             	mov    %rax,%rdx
    2a02:	e8 00 00 00 00       	callq  2a07 <early_printk+0x67>
    2a07:	48 8b 3c 25 00 00 00 	mov    0x0,%rdi
    2a0e:	00 
    2a0f:	48 89 de             	mov    %rbx,%rsi
    2a12:	89 c2                	mov    %eax,%edx
    2a14:	ff 57 10             	callq  *0x10(%rdi)
    2a17:	48 81 c4 48 02 00 00 	add    $0x248,%rsp
    2a1e:	5b                   	pop    %rbx
    2a1f:	5d                   	pop    %rbp
    2a20:	c3                   	retq   
    2a21:	0f 1f 44 00 00       	nopl   0x0(%rax,%rax,1)
    2a26:	66 2e 0f 1f 84 00 00 	nopw   %cs:0x0(%rax,%rax,1)
    2a2d:	00 00 00 

0000000000002a30 <add_preferred_console>:
    2a30:	55                   	push   %rbp
    2a31:	48 89 e5             	mov    %rsp,%rbp
    2a34:	53                   	push   %rbx
    2a35:	50                   	push   %rax
    2a36:	31 c9                	xor    %ecx,%ecx
    2a38:	e8 23 00 00 00       	callq  2a60 <__add_preferred_console>
    2a3d:	89 c3                	mov    %eax,%ebx
    2a3f:	48 89 ef             	mov    %rbp,%rdi
    2a42:	e8 00 00 00 00       	callq  2a47 <add_preferred_console+0x17>
    2a47:	48 ff 45 08          	incq   0x8(%rbp)
    2a4b:	48 ff 4d 08          	decq   0x8(%rbp)
    2a4f:	90                   	nop
    2a50:	90                   	nop
    2a51:	90                   	nop
    2a52:	90                   	nop
    2a53:	89 d8                	mov    %ebx,%eax
    2a55:	48 83 c4 08          	add    $0x8,%rsp
    2a59:	5b                   	pop    %rbx
    2a5a:	5d                   	pop    %rbp
    2a5b:	c3                   	retq   
    2a5c:	0f 1f 40 00          	nopl   0x0(%rax)

0000000000002a60 <__add_preferred_console>:
    2a60:	55                   	push   %rbp
    2a61:	48 89 e5             	mov    %rsp,%rbp
    2a64:	41 57                	push   %r15
    2a66:	41 56                	push   %r14
    2a68:	41 55                	push   %r13
    2a6a:	41 54                	push   %r12
    2a6c:	53                   	push   %rbx
    2a6d:	50                   	push   %rax
    2a6e:	49 89 ce             	mov    %rcx,%r14
    2a71:	49 89 d7             	mov    %rdx,%r15
    2a74:	41 89 f4             	mov    %esi,%r12d
    2a77:	49 89 fd             	mov    %rdi,%r13
    2a7a:	80 3c 25 00 00 00 00 	cmpb   $0x0,0x0
    2a81:	00 
    2a82:	0f 84 6e 01 00 00    	je     2bf6 <__add_preferred_console+0x196>
    2a88:	48 c7 c7 00 00 00 00 	mov    $0x0,%rdi
    2a8f:	4c 89 ee             	mov    %r13,%rsi
    2a92:	e8 00 00 00 00       	callq  2a97 <__add_preferred_console+0x37>
    2a97:	85 c0                	test   %eax,%eax
    2a99:	75 10                	jne    2aab <__add_preferred_console+0x4b>
    2a9b:	31 c0                	xor    %eax,%eax
    2a9d:	44 39 24 25 00 00 00 	cmp    %r12d,0x0
    2aa4:	00 
    2aa5:	0f 84 34 01 00 00    	je     2bdf <__add_preferred_console+0x17f>
    2aab:	80 3c 25 00 00 00 00 	cmpb   $0x0,0x0
    2ab2:	00 
    2ab3:	0f 84 54 01 00 00    	je     2c0d <__add_preferred_console+0x1ad>
    2ab9:	48 c7 c7 00 00 00 00 	mov    $0x0,%rdi
    2ac0:	4c 89 ee             	mov    %r13,%rsi
    2ac3:	e8 00 00 00 00       	callq  2ac8 <__add_preferred_console+0x68>
    2ac8:	85 c0                	test   %eax,%eax
    2aca:	75 13                	jne    2adf <__add_preferred_console+0x7f>
    2acc:	b8 01 00 00 00       	mov    $0x1,%eax
    2ad1:	44 39 24 25 00 00 00 	cmp    %r12d,0x0
    2ad8:	00 
    2ad9:	0f 84 00 01 00 00    	je     2bdf <__add_preferred_console+0x17f>
    2adf:	80 3c 25 00 00 00 00 	cmpb   $0x0,0x0
    2ae6:	00 
    2ae7:	0f 84 3a 01 00 00    	je     2c27 <__add_preferred_console+0x1c7>
    2aed:	48 c7 c7 00 00 00 00 	mov    $0x0,%rdi
    2af4:	4c 89 ee             	mov    %r13,%rsi
    2af7:	e8 00 00 00 00       	callq  2afc <__add_preferred_console+0x9c>
    2afc:	85 c0                	test   %eax,%eax
    2afe:	75 13                	jne    2b13 <__add_preferred_console+0xb3>
    2b00:	b8 02 00 00 00       	mov    $0x2,%eax
    2b05:	44 39 24 25 00 00 00 	cmp    %r12d,0x0
    2b0c:	00 
    2b0d:	0f 84 cc 00 00 00    	je     2bdf <__add_preferred_console+0x17f>
    2b13:	80 3c 25 00 00 00 00 	cmpb   $0x0,0x0
    2b1a:	00 
    2b1b:	0f 84 20 01 00 00    	je     2c41 <__add_preferred_console+0x1e1>
    2b21:	48 c7 c7 00 00 00 00 	mov    $0x0,%rdi
    2b28:	4c 89 ee             	mov    %r13,%rsi
    2b2b:	e8 00 00 00 00       	callq  2b30 <__add_preferred_console+0xd0>
    2b30:	85 c0                	test   %eax,%eax
    2b32:	75 13                	jne    2b47 <__add_preferred_console+0xe7>
    2b34:	b8 03 00 00 00       	mov    $0x3,%eax
    2b39:	44 39 24 25 00 00 00 	cmp    %r12d,0x0
    2b40:	00 
    2b41:	0f 84 98 00 00 00    	je     2bdf <__add_preferred_console+0x17f>
    2b47:	80 3c 25 00 00 00 00 	cmpb   $0x0,0x0
    2b4e:	00 
    2b4f:	0f 84 06 01 00 00    	je     2c5b <__add_preferred_console+0x1fb>
    2b55:	48 c7 c7 00 00 00 00 	mov    $0x0,%rdi
    2b5c:	4c 89 ee             	mov    %r13,%rsi
    2b5f:	e8 00 00 00 00       	callq  2b64 <__add_preferred_console+0x104>
    2b64:	85 c0                	test   %eax,%eax
    2b66:	75 0f                	jne    2b77 <__add_preferred_console+0x117>
    2b68:	b8 04 00 00 00       	mov    $0x4,%eax
    2b6d:	44 39 24 25 00 00 00 	cmp    %r12d,0x0
    2b74:	00 
    2b75:	74 68                	je     2bdf <__add_preferred_console+0x17f>
    2b77:	80 3c 25 00 00 00 00 	cmpb   $0x0,0x0
    2b7e:	00 
    2b7f:	0f 84 e9 00 00 00    	je     2c6e <__add_preferred_console+0x20e>
    2b85:	48 c7 c7 00 00 00 00 	mov    $0x0,%rdi
    2b8c:	4c 89 ee             	mov    %r13,%rsi
    2b8f:	e8 00 00 00 00       	callq  2b94 <__add_preferred_console+0x134>
    2b94:	85 c0                	test   %eax,%eax
    2b96:	75 0f                	jne    2ba7 <__add_preferred_console+0x147>
    2b98:	b8 05 00 00 00       	mov    $0x5,%eax
    2b9d:	44 39 24 25 00 00 00 	cmp    %r12d,0x0
    2ba4:	00 
    2ba5:	74 38                	je     2bdf <__add_preferred_console+0x17f>
    2ba7:	80 3c 25 00 00 00 00 	cmpb   $0x0,0x0
    2bae:	00 
    2baf:	0f 84 cc 00 00 00    	je     2c81 <__add_preferred_console+0x221>
    2bb5:	48 c7 c7 00 00 00 00 	mov    $0x0,%rdi
    2bbc:	4c 89 ee             	mov    %r13,%rsi
    2bbf:	e8 00 00 00 00       	callq  2bc4 <__add_preferred_console+0x164>
    2bc4:	85 c0                	test   %eax,%eax
    2bc6:	0f 85 c8 00 00 00    	jne    2c94 <__add_preferred_console+0x234>
    2bcc:	b8 06 00 00 00       	mov    $0x6,%eax
    2bd1:	44 39 24 25 00 00 00 	cmp    %r12d,0x0
    2bd8:	00 
    2bd9:	0f 85 b5 00 00 00    	jne    2c94 <__add_preferred_console+0x234>
    2bdf:	31 db                	xor    %ebx,%ebx
    2be1:	4d 85 f6             	test   %r14,%r14
    2be4:	0f 85 13 01 00 00    	jne    2cfd <__add_preferred_console+0x29d>
    2bea:	89 04 25 00 00 00 00 	mov    %eax,0x0
    2bf1:	e9 07 01 00 00       	jmpq   2cfd <__add_preferred_console+0x29d>
    2bf6:	48 c7 c3 00 00 00 00 	mov    $0x0,%rbx
    2bfd:	31 c0                	xor    %eax,%eax
    2bff:	4d 85 f6             	test   %r14,%r14
    2c02:	0f 85 db 00 00 00    	jne    2ce3 <__add_preferred_console+0x283>
    2c08:	e9 cf 00 00 00       	jmpq   2cdc <__add_preferred_console+0x27c>
    2c0d:	48 c7 c3 00 00 00 00 	mov    $0x0,%rbx
    2c14:	b8 01 00 00 00       	mov    $0x1,%eax
    2c19:	4d 85 f6             	test   %r14,%r14
    2c1c:	0f 85 c1 00 00 00    	jne    2ce3 <__add_preferred_console+0x283>
    2c22:	e9 b5 00 00 00       	jmpq   2cdc <__add_preferred_console+0x27c>
    2c27:	48 c7 c3 00 00 00 00 	mov    $0x0,%rbx
    2c2e:	b8 02 00 00 00       	mov    $0x2,%eax
    2c33:	4d 85 f6             	test   %r14,%r14
    2c36:	0f 85 a7 00 00 00    	jne    2ce3 <__add_preferred_console+0x283>
    2c3c:	e9 9b 00 00 00       	jmpq   2cdc <__add_preferred_console+0x27c>
    2c41:	48 c7 c3 00 00 00 00 	mov    $0x0,%rbx
    2c48:	b8 03 00 00 00       	mov    $0x3,%eax
    2c4d:	4d 85 f6             	test   %r14,%r14
    2c50:	0f 85 8d 00 00 00    	jne    2ce3 <__add_preferred_console+0x283>
    2c56:	e9 81 00 00 00       	jmpq   2cdc <__add_preferred_console+0x27c>
    2c5b:	48 c7 c3 00 00 00 00 	mov    $0x0,%rbx
    2c62:	b8 04 00 00 00       	mov    $0x4,%eax
    2c67:	4d 85 f6             	test   %r14,%r14
    2c6a:	75 77                	jne    2ce3 <__add_preferred_console+0x283>
    2c6c:	eb 6e                	jmp    2cdc <__add_preferred_console+0x27c>
    2c6e:	48 c7 c3 00 00 00 00 	mov    $0x0,%rbx
    2c75:	b8 05 00 00 00       	mov    $0x5,%eax
    2c7a:	4d 85 f6             	test   %r14,%r14
    2c7d:	75 64                	jne    2ce3 <__add_preferred_console+0x283>
    2c7f:	eb 5b                	jmp    2cdc <__add_preferred_console+0x27c>
    2c81:	48 c7 c3 00 00 00 00 	mov    $0x0,%rbx
    2c88:	b8 06 00 00 00       	mov    $0x6,%eax
    2c8d:	4d 85 f6             	test   %r14,%r14
    2c90:	75 51                	jne    2ce3 <__add_preferred_console+0x283>
    2c92:	eb 48                	jmp    2cdc <__add_preferred_console+0x27c>
    2c94:	80 3c 25 00 00 00 00 	cmpb   $0x0,0x0
    2c9b:	00 
    2c9c:	74 2d                	je     2ccb <__add_preferred_console+0x26b>
    2c9e:	48 c7 c7 00 00 00 00 	mov    $0x0,%rdi
    2ca5:	4c 89 ee             	mov    %r13,%rsi
    2ca8:	e8 00 00 00 00       	callq  2cad <__add_preferred_console+0x24d>
    2cad:	bb f9 ff ff ff       	mov    $0xfffffff9,%ebx
    2cb2:	85 c0                	test   %eax,%eax
    2cb4:	75 47                	jne    2cfd <__add_preferred_console+0x29d>
    2cb6:	b8 07 00 00 00       	mov    $0x7,%eax
    2cbb:	44 39 24 25 00 00 00 	cmp    %r12d,0x0
    2cc2:	00 
    2cc3:	0f 84 16 ff ff ff    	je     2bdf <__add_preferred_console+0x17f>
    2cc9:	eb 32                	jmp    2cfd <__add_preferred_console+0x29d>
    2ccb:	48 c7 c3 00 00 00 00 	mov    $0x0,%rbx
    2cd2:	b8 07 00 00 00       	mov    $0x7,%eax
    2cd7:	4d 85 f6             	test   %r14,%r14
    2cda:	75 07                	jne    2ce3 <__add_preferred_console+0x283>
    2cdc:	89 04 25 00 00 00 00 	mov    %eax,0x0
    2ce3:	ba 10 00 00 00       	mov    $0x10,%edx
    2ce8:	48 89 df             	mov    %rbx,%rdi
    2ceb:	4c 89 ee             	mov    %r13,%rsi
    2cee:	e8 00 00 00 00       	callq  2cf3 <__add_preferred_console+0x293>
    2cf3:	4c 89 7b 18          	mov    %r15,0x18(%rbx)
    2cf7:	44 89 63 10          	mov    %r12d,0x10(%rbx)
    2cfb:	31 db                	xor    %ebx,%ebx
    2cfd:	48 89 ef             	mov    %rbp,%rdi
    2d00:	e8 00 00 00 00       	callq  2d05 <__add_preferred_console+0x2a5>
    2d05:	48 ff 45 08          	incq   0x8(%rbp)
    2d09:	48 ff 4d 08          	decq   0x8(%rbp)
    2d0d:	90                   	nop
    2d0e:	90                   	nop
    2d0f:	90                   	nop
    2d10:	90                   	nop
    2d11:	89 d8                	mov    %ebx,%eax
    2d13:	48 83 c4 08          	add    $0x8,%rsp
    2d17:	5b                   	pop    %rbx
    2d18:	41 5c                	pop    %r12
    2d1a:	41 5d                	pop    %r13
    2d1c:	41 5e                	pop    %r14
    2d1e:	41 5f                	pop    %r15
    2d20:	5d                   	pop    %rbp
    2d21:	c3                   	retq   
    2d22:	0f 1f 40 00          	nopl   0x0(%rax)
    2d26:	66 2e 0f 1f 84 00 00 	nopw   %cs:0x0(%rax,%rax,1)
    2d2d:	00 00 00 

0000000000002d30 <suspend_console>:
    2d30:	55                   	push   %rbp
    2d31:	48 89 e5             	mov    %rsp,%rbp
    2d34:	80 3c 25 00 00 00 00 	cmpb   $0x0,0x0
    2d3b:	00 
    2d3c:	74 4e                	je     2d8c <suspend_console+0x5c>
    2d3e:	48 c7 c7 00 00 00 00 	mov    $0x0,%rdi
    2d45:	31 c0                	xor    %eax,%eax
    2d47:	e8 00 00 00 00       	callq  2d4c <suspend_console+0x1c>
    2d4c:	e8 00 00 00 00       	callq  2d51 <suspend_console+0x21>
    2d51:	48 c7 c7 00 00 00 00 	mov    $0x0,%rdi
    2d58:	e8 00 00 00 00       	callq  2d5d <suspend_console+0x2d>
    2d5d:	8a 04 25 00 00 00 00 	mov    0x0,%al
    2d64:	84 c0                	test   %al,%al
    2d66:	75 10                	jne    2d78 <suspend_console+0x48>
    2d68:	c6 04 25 00 00 00 00 	movb   $0x1,0x0
    2d6f:	01 
    2d70:	c6 04 25 00 00 00 00 	movb   $0x1,0x0
    2d77:	01 
    2d78:	c6 04 25 00 00 00 00 	movb   $0x1,0x0
    2d7f:	01 
    2d80:	48 c7 c7 00 00 00 00 	mov    $0x0,%rdi
    2d87:	e8 00 00 00 00       	callq  2d8c <suspend_console+0x5c>
    2d8c:	48 89 ef             	mov    %rbp,%rdi
    2d8f:	e8 00 00 00 00       	callq  2d94 <suspend_console+0x64>
    2d94:	48 ff 45 08          	incq   0x8(%rbp)
    2d98:	48 ff 4d 08          	decq   0x8(%rbp)
    2d9c:	90                   	nop
    2d9d:	90                   	nop
    2d9e:	90                   	nop
    2d9f:	90                   	nop
    2da0:	5d                   	pop    %rbp
    2da1:	c3                   	retq   
    2da2:	0f 1f 40 00          	nopl   0x0(%rax)
    2da6:	66 2e 0f 1f 84 00 00 	nopw   %cs:0x0(%rax,%rax,1)
    2dad:	00 00 00 

0000000000002db0 <console_lock>:
    2db0:	55                   	push   %rbp
    2db1:	48 89 e5             	mov    %rsp,%rbp
    2db4:	e8 00 00 00 00       	callq  2db9 <console_lock+0x9>
    2db9:	48 c7 c7 00 00 00 00 	mov    $0x0,%rdi
    2dc0:	e8 00 00 00 00       	callq  2dc5 <console_lock+0x15>
    2dc5:	8a 04 25 00 00 00 00 	mov    0x0,%al
    2dcc:	84 c0                	test   %al,%al
    2dce:	75 10                	jne    2de0 <console_lock+0x30>
    2dd0:	c6 04 25 00 00 00 00 	movb   $0x1,0x0
    2dd7:	01 
    2dd8:	c6 04 25 00 00 00 00 	movb   $0x1,0x0
    2ddf:	01 
    2de0:	48 89 ef             	mov    %rbp,%rdi
    2de3:	e8 00 00 00 00       	callq  2de8 <console_lock+0x38>
    2de8:	48 ff 45 08          	incq   0x8(%rbp)
    2dec:	48 ff 4d 08          	decq   0x8(%rbp)
    2df0:	90                   	nop
    2df1:	90                   	nop
    2df2:	90                   	nop
    2df3:	90                   	nop
    2df4:	5d                   	pop    %rbp
    2df5:	c3                   	retq   
    2df6:	66 2e 0f 1f 84 00 00 	nopw   %cs:0x0(%rax,%rax,1)
    2dfd:	00 00 00 

0000000000002e00 <resume_console>:
    2e00:	55                   	push   %rbp
    2e01:	48 89 e5             	mov    %rsp,%rbp
    2e04:	80 3c 25 00 00 00 00 	cmpb   $0x0,0x0
    2e0b:	00 
    2e0c:	74 19                	je     2e27 <resume_console+0x27>
    2e0e:	48 c7 c7 00 00 00 00 	mov    $0x0,%rdi
    2e15:	e8 00 00 00 00       	callq  2e1a <resume_console+0x1a>
    2e1a:	c6 04 25 00 00 00 00 	movb   $0x0,0x0
    2e21:	00 
    2e22:	e8 00 00 00 00       	callq  2e27 <resume_console+0x27>
    2e27:	48 89 ef             	mov    %rbp,%rdi
    2e2a:	e8 00 00 00 00       	callq  2e2f <resume_console+0x2f>
    2e2f:	48 ff 45 08          	incq   0x8(%rbp)
    2e33:	48 ff 4d 08          	decq   0x8(%rbp)
    2e37:	90                   	nop
    2e38:	90                   	nop
    2e39:	90                   	nop
    2e3a:	90                   	nop
    2e3b:	5d                   	pop    %rbp
    2e3c:	c3                   	retq   
    2e3d:	0f 1f 00             	nopl   (%rax)

0000000000002e40 <console_trylock>:
    2e40:	55                   	push   %rbp
    2e41:	48 89 e5             	mov    %rsp,%rbp
    2e44:	53                   	push   %rbx
    2e45:	50                   	push   %rax
    2e46:	48 c7 c7 00 00 00 00 	mov    $0x0,%rdi
    2e4d:	e8 00 00 00 00       	callq  2e52 <console_trylock+0x12>
    2e52:	31 db                	xor    %ebx,%ebx
    2e54:	85 c0                	test   %eax,%eax
    2e56:	75 2d                	jne    2e85 <console_trylock+0x45>
    2e58:	80 3c 25 00 00 00 00 	cmpb   $0x1,0x0
    2e5f:	01 
    2e60:	75 0e                	jne    2e70 <console_trylock+0x30>
    2e62:	48 c7 c7 00 00 00 00 	mov    $0x0,%rdi
    2e69:	e8 00 00 00 00       	callq  2e6e <console_trylock+0x2e>
    2e6e:	eb 15                	jmp    2e85 <console_trylock+0x45>
    2e70:	c6 04 25 00 00 00 00 	movb   $0x1,0x0
    2e77:	01 
    2e78:	c6 04 25 00 00 00 00 	movb   $0x0,0x0
    2e7f:	00 
    2e80:	bb 01 00 00 00       	mov    $0x1,%ebx
    2e85:	48 89 ef             	mov    %rbp,%rdi
    2e88:	e8 00 00 00 00       	callq  2e8d <console_trylock+0x4d>
    2e8d:	48 ff 45 08          	incq   0x8(%rbp)
    2e91:	48 ff 4d 08          	decq   0x8(%rbp)
    2e95:	90                   	nop
    2e96:	90                   	nop
    2e97:	90                   	nop
    2e98:	90                   	nop
    2e99:	89 d8                	mov    %ebx,%eax
    2e9b:	48 83 c4 08          	add    $0x8,%rsp
    2e9f:	5b                   	pop    %rbx
    2ea0:	5d                   	pop    %rbp
    2ea1:	c3                   	retq   
    2ea2:	0f 1f 40 00          	nopl   0x0(%rax)
    2ea6:	66 2e 0f 1f 84 00 00 	nopw   %cs:0x0(%rax,%rax,1)
    2ead:	00 00 00 

0000000000002eb0 <is_console_locked>:
    2eb0:	0f b6 04 25 00 00 00 	movzbl 0x0,%eax
    2eb7:	00 
    2eb8:	c3                   	retq   
    2eb9:	0f 1f 80 00 00 00 00 	nopl   0x0(%rax)

0000000000002ec0 <msg_print_ext_body>:
    2ec0:	55                   	push   %rbp
    2ec1:	48 89 e5             	mov    %rsp,%rbp
    2ec4:	41 57                	push   %r15
    2ec6:	41 56                	push   %r14
    2ec8:	41 55                	push   %r13
    2eca:	41 54                	push   %r12
    2ecc:	53                   	push   %rbx
    2ecd:	48 83 ec 18          	sub    $0x18,%rsp
    2ed1:	4d 89 ce             	mov    %r9,%r14
    2ed4:	4d 89 c4             	mov    %r8,%r12
    2ed7:	49 89 cf             	mov    %rcx,%r15
    2eda:	49 89 d5             	mov    %rdx,%r13
    2edd:	48 01 fe             	add    %rdi,%rsi
    2ee0:	4d 85 f6             	test   %r14,%r14
    2ee3:	48 89 75 d0          	mov    %rsi,-0x30(%rbp)
    2ee7:	48 89 7d c8          	mov    %rdi,-0x38(%rbp)
    2eeb:	48 89 fb             	mov    %rdi,%rbx
    2eee:	74 49                	je     2f39 <msg_print_ext_body+0x79>
    2ef0:	41 0f b6 0c 24       	movzbl (%r12),%ecx
    2ef5:	83 f9 5c             	cmp    $0x5c,%ecx
    2ef8:	74 16                	je     2f10 <msg_print_ext_body+0x50>
    2efa:	89 c8                	mov    %ecx,%eax
    2efc:	04 e0                	add    $0xe0,%al
    2efe:	3c 5f                	cmp    $0x5f,%al
    2f00:	73 0e                	jae    2f10 <msg_print_ext_body+0x50>
    2f02:	48 39 f3             	cmp    %rsi,%rbx
    2f05:	73 2a                	jae    2f31 <msg_print_ext_body+0x71>
    2f07:	88 0b                	mov    %cl,(%rbx)
    2f09:	48 ff c3             	inc    %rbx
    2f0c:	eb 23                	jmp    2f31 <msg_print_ext_body+0x71>
    2f0e:	66 90                	xchg   %ax,%ax
    2f10:	48 8b 75 d0          	mov    -0x30(%rbp),%rsi
    2f14:	48 29 de             	sub    %rbx,%rsi
    2f17:	48 c7 c2 00 00 00 00 	mov    $0x0,%rdx
    2f1e:	31 c0                	xor    %eax,%eax
    2f20:	48 89 df             	mov    %rbx,%rdi
    2f23:	e8 00 00 00 00       	callq  2f28 <msg_print_ext_body+0x68>
    2f28:	48 8b 75 d0          	mov    -0x30(%rbp),%rsi
    2f2c:	48 98                	cltq   
    2f2e:	48 01 c3             	add    %rax,%rbx
    2f31:	49 ff c4             	inc    %r12
    2f34:	49 ff ce             	dec    %r14
    2f37:	75 b7                	jne    2ef0 <msg_print_ext_body+0x30>
    2f39:	48 39 f3             	cmp    %rsi,%rbx
    2f3c:	73 06                	jae    2f44 <msg_print_ext_body+0x84>
    2f3e:	c6 03 0a             	movb   $0xa,(%rbx)
    2f41:	48 ff c3             	inc    %rbx
    2f44:	4d 85 ff             	test   %r15,%r15
    2f47:	0f 84 8a 00 00 00    	je     2fd7 <msg_print_ext_body+0x117>
    2f4d:	41 b6 01             	mov    $0x1,%r14b
    2f50:	41 0f b6 45 00       	movzbl 0x0(%r13),%eax
    2f55:	41 f6 c6 01          	test   $0x1,%r14b
    2f59:	74 0e                	je     2f69 <msg_print_ext_body+0xa9>
    2f5b:	48 39 f3             	cmp    %rsi,%rbx
    2f5e:	73 06                	jae    2f66 <msg_print_ext_body+0xa6>
    2f60:	c6 03 20             	movb   $0x20,(%rbx)
    2f63:	48 ff c3             	inc    %rbx
    2f66:	45 31 f6             	xor    %r14d,%r14d
    2f69:	84 c0                	test   %al,%al
    2f6b:	74 23                	je     2f90 <msg_print_ext_body+0xd0>
    2f6d:	3c 5c                	cmp    $0x5c,%al
    2f6f:	74 2f                	je     2fa0 <msg_print_ext_body+0xe0>
    2f71:	89 c1                	mov    %eax,%ecx
    2f73:	80 c1 e0             	add    $0xe0,%cl
    2f76:	80 f9 5f             	cmp    $0x5f,%cl
    2f79:	73 25                	jae    2fa0 <msg_print_ext_body+0xe0>
    2f7b:	48 39 f3             	cmp    %rsi,%rbx
    2f7e:	73 44                	jae    2fc4 <msg_print_ext_body+0x104>
    2f80:	88 03                	mov    %al,(%rbx)
    2f82:	eb 17                	jmp    2f9b <msg_print_ext_body+0xdb>
    2f84:	66 90                	xchg   %ax,%ax
    2f86:	66 2e 0f 1f 84 00 00 	nopw   %cs:0x0(%rax,%rax,1)
    2f8d:	00 00 00 
    2f90:	41 b6 01             	mov    $0x1,%r14b
    2f93:	48 39 f3             	cmp    %rsi,%rbx
    2f96:	73 2c                	jae    2fc4 <msg_print_ext_body+0x104>
    2f98:	c6 03 0a             	movb   $0xa,(%rbx)
    2f9b:	48 ff c3             	inc    %rbx
    2f9e:	eb 24                	jmp    2fc4 <msg_print_ext_body+0x104>
    2fa0:	0f b6 c8             	movzbl %al,%ecx
    2fa3:	48 8b 75 d0          	mov    -0x30(%rbp),%rsi
    2fa7:	48 29 de             	sub    %rbx,%rsi
    2faa:	48 c7 c2 00 00 00 00 	mov    $0x0,%rdx
    2fb1:	31 c0                	xor    %eax,%eax
    2fb3:	48 89 df             	mov    %rbx,%rdi
    2fb6:	e8 00 00 00 00       	callq  2fbb <msg_print_ext_body+0xfb>
    2fbb:	48 8b 75 d0          	mov    -0x30(%rbp),%rsi
    2fbf:	48 98                	cltq   
    2fc1:	48 01 c3             	add    %rax,%rbx
    2fc4:	49 ff c5             	inc    %r13
    2fc7:	49 ff cf             	dec    %r15
    2fca:	75 84                	jne    2f50 <msg_print_ext_body+0x90>
    2fcc:	48 39 f3             	cmp    %rsi,%rbx
    2fcf:	73 06                	jae    2fd7 <msg_print_ext_body+0x117>
    2fd1:	c6 03 0a             	movb   $0xa,(%rbx)
    2fd4:	48 ff c3             	inc    %rbx
    2fd7:	48 2b 5d c8          	sub    -0x38(%rbp),%rbx
    2fdb:	48 89 d8             	mov    %rbx,%rax
    2fde:	48 83 c4 18          	add    $0x18,%rsp
    2fe2:	5b                   	pop    %rbx
    2fe3:	41 5c                	pop    %r12
    2fe5:	41 5d                	pop    %r13
    2fe7:	41 5e                	pop    %r14
    2fe9:	41 5f                	pop    %r15
    2feb:	5d                   	pop    %rbp
    2fec:	c3                   	retq   
    2fed:	0f 1f 00             	nopl   (%rax)

0000000000002ff0 <wake_up_klogd>:
    2ff0:	48 c7 c0 00 00 00 00 	mov    $0x0,%rax
    2ff7:	48 39 04 25 00 00 00 	cmp    %rax,0x0
    2ffe:	00 
    2fff:	74 23                	je     3024 <wake_up_klogd+0x34>
    3001:	55                   	push   %rbp
    3002:	48 89 e5             	mov    %rsp,%rbp
    3005:	65 83 0c 25 00 00 00 	orl    $0x1,%gs:0x0
    300c:	00 01 
    300e:	48 c7 c7 00 00 00 00 	mov    $0x0,%rdi
    3015:	65 48 03 3c 25 00 00 	add    %gs:0x0,%rdi
    301c:	00 00 
    301e:	e8 00 00 00 00       	callq  3023 <wake_up_klogd+0x33>
    3023:	5d                   	pop    %rbp
    3024:	c3                   	retq   
    3025:	90                   	nop
    3026:	66 2e 0f 1f 84 00 00 	nopw   %cs:0x0(%rax,%rax,1)
    302d:	00 00 00 

0000000000003030 <console_unblank>:
    3030:	55                   	push   %rbp
    3031:	48 89 e5             	mov    %rsp,%rbp
    3034:	53                   	push   %rbx
    3035:	50                   	push   %rax
    3036:	83 3c 25 00 00 00 00 	cmpl   $0x0,0x0
    303d:	00 
    303e:	74 12                	je     3052 <console_unblank+0x22>
    3040:	48 c7 c7 00 00 00 00 	mov    $0x0,%rdi
    3047:	e8 00 00 00 00       	callq  304c <console_unblank+0x1c>
    304c:	85 c0                	test   %eax,%eax
    304e:	75 71                	jne    30c1 <console_unblank+0x91>
    3050:	eb 2c                	jmp    307e <console_unblank+0x4e>
    3052:	e8 00 00 00 00       	callq  3057 <console_unblank+0x27>
    3057:	48 c7 c7 00 00 00 00 	mov    $0x0,%rdi
    305e:	e8 00 00 00 00       	callq  3063 <console_unblank+0x33>
    3063:	8a 04 25 00 00 00 00 	mov    0x0,%al
    306a:	84 c0                	test   %al,%al
    306c:	75 10                	jne    307e <console_unblank+0x4e>
    306e:	c6 04 25 00 00 00 00 	movb   $0x1,0x0
    3075:	01 
    3076:	c6 04 25 00 00 00 00 	movb   $0x1,0x0
    307d:	01 
    307e:	c6 04 25 00 00 00 00 	movb   $0x1,0x0
    3085:	01 
    3086:	c6 04 25 00 00 00 00 	movb   $0x0,0x0
    308d:	00 
    308e:	48 8b 1c 25 00 00 00 	mov    0x0,%rbx
    3095:	00 
    3096:	48 85 db             	test   %rbx,%rbx
    3099:	75 0e                	jne    30a9 <console_unblank+0x79>
    309b:	eb 1f                	jmp    30bc <console_unblank+0x8c>
    309d:	0f 1f 00             	nopl   (%rax)
    30a0:	48 8b 5b 50          	mov    0x50(%rbx),%rbx
    30a4:	48 85 db             	test   %rbx,%rbx
    30a7:	74 13                	je     30bc <console_unblank+0x8c>
    30a9:	f6 43 40 04          	testb  $0x4,0x40(%rbx)
    30ad:	74 f1                	je     30a0 <console_unblank+0x70>
    30af:	48 8b 43 28          	mov    0x28(%rbx),%rax
    30b3:	48 85 c0             	test   %rax,%rax
    30b6:	74 e8                	je     30a0 <console_unblank+0x70>
    30b8:	ff d0                	callq  *%rax
    30ba:	eb e4                	jmp    30a0 <console_unblank+0x70>
    30bc:	e8 00 00 00 00       	callq  30c1 <console_unblank+0x91>
    30c1:	48 83 c4 08          	add    $0x8,%rsp
    30c5:	5b                   	pop    %rbx
    30c6:	5d                   	pop    %rbp
    30c7:	c3                   	retq   
    30c8:	0f 1f 84 00 00 00 00 	nopl   0x0(%rax,%rax,1)
    30cf:	00 

00000000000030d0 <console_flush_on_panic>:
    30d0:	55                   	push   %rbp
    30d1:	48 89 e5             	mov    %rsp,%rbp
    30d4:	48 c7 c7 00 00 00 00 	mov    $0x0,%rdi
    30db:	e8 00 00 00 00       	callq  30e0 <console_flush_on_panic+0x10>
    30e0:	85 c0                	test   %eax,%eax
    30e2:	75 28                	jne    310c <console_flush_on_panic+0x3c>
    30e4:	80 3c 25 00 00 00 00 	cmpb   $0x1,0x0
    30eb:	01 
    30ec:	75 0e                	jne    30fc <console_flush_on_panic+0x2c>
    30ee:	48 c7 c7 00 00 00 00 	mov    $0x0,%rdi
    30f5:	e8 00 00 00 00       	callq  30fa <console_flush_on_panic+0x2a>
    30fa:	eb 10                	jmp    310c <console_flush_on_panic+0x3c>
    30fc:	c6 04 25 00 00 00 00 	movb   $0x1,0x0
    3103:	01 
    3104:	c6 04 25 00 00 00 00 	movb   $0x0,0x0
    310b:	00 
    310c:	c6 04 25 00 00 00 00 	movb   $0x0,0x0
    3113:	00 
    3114:	e8 00 00 00 00       	callq  3119 <console_flush_on_panic+0x49>
    3119:	5d                   	pop    %rbp
    311a:	c3                   	retq   
    311b:	0f 1f 44 00 00       	nopl   0x0(%rax,%rax,1)

0000000000003120 <console_device>:
    3120:	55                   	push   %rbp
    3121:	48 89 e5             	mov    %rsp,%rbp
    3124:	41 57                	push   %r15
    3126:	41 56                	push   %r14
    3128:	53                   	push   %rbx
    3129:	50                   	push   %rax
    312a:	49 89 fe             	mov    %rdi,%r14
    312d:	e8 00 00 00 00       	callq  3132 <console_device+0x12>
    3132:	48 c7 c7 00 00 00 00 	mov    $0x0,%rdi
    3139:	e8 00 00 00 00       	callq  313e <console_device+0x1e>
    313e:	8a 04 25 00 00 00 00 	mov    0x0,%al
    3145:	84 c0                	test   %al,%al
    3147:	75 10                	jne    3159 <console_device+0x39>
    3149:	c6 04 25 00 00 00 00 	movb   $0x1,0x0
    3150:	01 
    3151:	c6 04 25 00 00 00 00 	movb   $0x1,0x0
    3158:	01 
    3159:	48 8b 1c 25 00 00 00 	mov    0x0,%rbx
    3160:	00 
    3161:	48 85 db             	test   %rbx,%rbx
    3164:	75 13                	jne    3179 <console_device+0x59>
    3166:	eb 2c                	jmp    3194 <console_device+0x74>
    3168:	0f 1f 84 00 00 00 00 	nopl   0x0(%rax,%rax,1)
    316f:	00 
    3170:	48 8b 5b 50          	mov    0x50(%rbx),%rbx
    3174:	48 85 db             	test   %rbx,%rbx
    3177:	74 1b                	je     3194 <console_device+0x74>
    3179:	48 8b 43 20          	mov    0x20(%rbx),%rax
    317d:	48 85 c0             	test   %rax,%rax
    3180:	74 ee                	je     3170 <console_device+0x50>
    3182:	48 89 df             	mov    %rbx,%rdi
    3185:	4c 89 f6             	mov    %r14,%rsi
    3188:	ff d0                	callq  *%rax
    318a:	49 89 c7             	mov    %rax,%r15
    318d:	4d 85 ff             	test   %r15,%r15
    3190:	74 de                	je     3170 <console_device+0x50>
    3192:	eb 03                	jmp    3197 <console_device+0x77>
    3194:	45 31 ff             	xor    %r15d,%r15d
    3197:	e8 00 00 00 00       	callq  319c <console_device+0x7c>
    319c:	48 89 ef             	mov    %rbp,%rdi
    319f:	e8 00 00 00 00       	callq  31a4 <console_device+0x84>
    31a4:	48 ff 45 08          	incq   0x8(%rbp)
    31a8:	48 ff 4d 08          	decq   0x8(%rbp)
    31ac:	90                   	nop
    31ad:	90                   	nop
    31ae:	90                   	nop
    31af:	90                   	nop
    31b0:	4c 89 f8             	mov    %r15,%rax
    31b3:	48 83 c4 08          	add    $0x8,%rsp
    31b7:	5b                   	pop    %rbx
    31b8:	41 5e                	pop    %r14
    31ba:	41 5f                	pop    %r15
    31bc:	5d                   	pop    %rbp
    31bd:	c3                   	retq   
    31be:	66 90                	xchg   %ax,%ax

00000000000031c0 <console_stop>:
    31c0:	55                   	push   %rbp
    31c1:	48 89 e5             	mov    %rsp,%rbp
    31c4:	53                   	push   %rbx
    31c5:	50                   	push   %rax
    31c6:	48 89 fb             	mov    %rdi,%rbx
    31c9:	e8 00 00 00 00       	callq  31ce <console_stop+0xe>
    31ce:	48 c7 c7 00 00 00 00 	mov    $0x0,%rdi
    31d5:	e8 00 00 00 00       	callq  31da <console_stop+0x1a>
    31da:	8a 04 25 00 00 00 00 	mov    0x0,%al
    31e1:	84 c0                	test   %al,%al
    31e3:	75 10                	jne    31f5 <console_stop+0x35>
    31e5:	c6 04 25 00 00 00 00 	movb   $0x1,0x0
    31ec:	01 
    31ed:	c6 04 25 00 00 00 00 	movb   $0x1,0x0
    31f4:	01 
    31f5:	80 63 40 fb          	andb   $0xfb,0x40(%rbx)
    31f9:	e8 00 00 00 00       	callq  31fe <console_stop+0x3e>
    31fe:	48 89 ef             	mov    %rbp,%rdi
    3201:	e8 00 00 00 00       	callq  3206 <console_stop+0x46>
    3206:	48 ff 45 08          	incq   0x8(%rbp)
    320a:	48 ff 4d 08          	decq   0x8(%rbp)
    320e:	90                   	nop
    320f:	90                   	nop
    3210:	90                   	nop
    3211:	90                   	nop
    3212:	48 83 c4 08          	add    $0x8,%rsp
    3216:	5b                   	pop    %rbx
    3217:	5d                   	pop    %rbp
    3218:	c3                   	retq   
    3219:	0f 1f 80 00 00 00 00 	nopl   0x0(%rax)

0000000000003220 <console_start>:
    3220:	55                   	push   %rbp
    3221:	48 89 e5             	mov    %rsp,%rbp
    3224:	53                   	push   %rbx
    3225:	50                   	push   %rax
    3226:	48 89 fb             	mov    %rdi,%rbx
    3229:	e8 00 00 00 00       	callq  322e <console_start+0xe>
    322e:	48 c7 c7 00 00 00 00 	mov    $0x0,%rdi
    3235:	e8 00 00 00 00       	callq  323a <console_start+0x1a>
    323a:	8a 04 25 00 00 00 00 	mov    0x0,%al
    3241:	84 c0                	test   %al,%al
    3243:	75 10                	jne    3255 <console_start+0x35>
    3245:	c6 04 25 00 00 00 00 	movb   $0x1,0x0
    324c:	01 
    324d:	c6 04 25 00 00 00 00 	movb   $0x1,0x0
    3254:	01 
    3255:	80 4b 40 04          	orb    $0x4,0x40(%rbx)
    3259:	e8 00 00 00 00       	callq  325e <console_start+0x3e>
    325e:	48 89 ef             	mov    %rbp,%rdi
    3261:	e8 00 00 00 00       	callq  3266 <console_start+0x46>
    3266:	48 ff 45 08          	incq   0x8(%rbp)
    326a:	48 ff 4d 08          	decq   0x8(%rbp)
    326e:	90                   	nop
    326f:	90                   	nop
    3270:	90                   	nop
    3271:	90                   	nop
    3272:	48 83 c4 08          	add    $0x8,%rsp
    3276:	5b                   	pop    %rbx
    3277:	5d                   	pop    %rbp
    3278:	c3                   	retq   
    3279:	0f 1f 80 00 00 00 00 	nopl   0x0(%rax)

0000000000003280 <register_console>:
    3280:	55                   	push   %rbp
    3281:	48 89 e5             	mov    %rsp,%rbp
    3284:	41 57                	push   %r15
    3286:	41 56                	push   %r14
    3288:	41 54                	push   %r12
    328a:	53                   	push   %rbx
    328b:	49 89 fe             	mov    %rdi,%r14
    328e:	48 8b 04 25 00 00 00 	mov    0x0,%rax
    3295:	00 
    3296:	48 85 c0             	test   %rax,%rax
    3299:	74 45                	je     32e0 <register_console+0x60>
    329b:	48 89 c1             	mov    %rax,%rcx
    329e:	66 90                	xchg   %ax,%ax
    32a0:	4c 39 f1             	cmp    %r14,%rcx
    32a3:	0f 84 30 03 00 00    	je     35d9 <register_console+0x359>
    32a9:	48 8b 49 50          	mov    0x50(%rcx),%rcx
    32ad:	48 85 c9             	test   %rcx,%rcx
    32b0:	75 ee                	jne    32a0 <register_console+0x20>
    32b2:	41 f6 46 40 08       	testb  $0x8,0x40(%r14)
    32b7:	74 1a                	je     32d3 <register_console+0x53>
    32b9:	48 89 c1             	mov    %rax,%rcx
    32bc:	0f 1f 40 00          	nopl   0x0(%rax)
    32c0:	f6 41 40 08          	testb  $0x8,0x40(%rcx)
    32c4:	0f 84 0f 01 00 00    	je     33d9 <register_console+0x159>
    32ca:	48 8b 49 50          	mov    0x50(%rcx),%rcx
    32ce:	48 85 c9             	test   %rcx,%rcx
    32d1:	75 ed                	jne    32c0 <register_console+0x40>
    32d3:	45 31 ff             	xor    %r15d,%r15d
    32d6:	f6 40 40 08          	testb  $0x8,0x40(%rax)
    32da:	4c 0f 45 f8          	cmovne %rax,%r15
    32de:	eb 03                	jmp    32e3 <register_console+0x63>
    32e0:	45 31 ff             	xor    %r15d,%r15d
    32e3:	8b 0c 25 00 00 00 00 	mov    0x0,%ecx
    32ea:	85 c9                	test   %ecx,%ecx
    32ec:	0f 99 c2             	setns  %dl
    32ef:	4d 85 ff             	test   %r15,%r15
    32f2:	0f 94 c3             	sete   %bl
    32f5:	48 85 c0             	test   %rax,%rax
    32f8:	74 04                	je     32fe <register_console+0x7e>
    32fa:	20 d3                	and    %dl,%bl
    32fc:	75 0e                	jne    330c <register_console+0x8c>
    32fe:	8b 0c 25 00 00 00 00 	mov    0x0,%ecx
    3305:	89 0c 25 00 00 00 00 	mov    %ecx,0x0
    330c:	85 c9                	test   %ecx,%ecx
    330e:	78 70                	js     3380 <register_console+0x100>
    3310:	48 c7 c3 00 00 00 00 	mov    $0x0,%rbx
    3317:	45 31 e4             	xor    %r12d,%r12d
    331a:	66 0f 1f 44 00 00    	nopw   0x0(%rax,%rax,1)
    3320:	80 3b 00             	cmpb   $0x0,(%rbx)
    3323:	0f 84 13 01 00 00    	je     343c <register_console+0x1bc>
    3329:	49 8b 46 38          	mov    0x38(%r14),%rax
    332d:	48 85 c0             	test   %rax,%rax
    3330:	74 17                	je     3349 <register_console+0xc9>
    3332:	8b 53 10             	mov    0x10(%rbx),%edx
    3335:	48 8b 4b 18          	mov    0x18(%rbx),%rcx
    3339:	4c 89 f7             	mov    %r14,%rdi
    333c:	48 89 de             	mov    %rbx,%rsi
    333f:	ff d0                	callq  *%rax
    3341:	85 c0                	test   %eax,%eax
    3343:	0f 84 ca 00 00 00    	je     3413 <register_console+0x193>
    3349:	48 89 df             	mov    %rbx,%rdi
    334c:	4c 89 f6             	mov    %r14,%rsi
    334f:	e8 00 00 00 00       	callq  3354 <register_console+0xd4>
    3354:	85 c0                	test   %eax,%eax
    3356:	75 16                	jne    336e <register_console+0xee>
    3358:	41 0f bf 46 42       	movswl 0x42(%r14),%eax
    335d:	85 c0                	test   %eax,%eax
    335f:	0f 88 8f 00 00 00    	js     33f4 <register_console+0x174>
    3365:	3b 43 10             	cmp    0x10(%rbx),%eax
    3368:	0f 84 8f 00 00 00    	je     33fd <register_console+0x17d>
    336e:	41 ff c4             	inc    %r12d
    3371:	48 83 c3 20          	add    $0x20,%rbx
    3375:	41 83 fc 08          	cmp    $0x8,%r12d
    3379:	7c a5                	jl     3320 <register_console+0xa0>
    337b:	e9 bc 00 00 00       	jmpq   343c <register_console+0x1bc>
    3380:	66 41 83 7e 42 00    	cmpw   $0x0,0x42(%r14)
    3386:	79 07                	jns    338f <register_console+0x10f>
    3388:	66 41 c7 46 42 00 00 	movw   $0x0,0x42(%r14)
    338f:	49 8b 46 30          	mov    0x30(%r14),%rax
    3393:	48 85 c0             	test   %rax,%rax
    3396:	74 0f                	je     33a7 <register_console+0x127>
    3398:	31 f6                	xor    %esi,%esi
    339a:	4c 89 f7             	mov    %r14,%rdi
    339d:	ff d0                	callq  *%rax
    339f:	85 c0                	test   %eax,%eax
    33a1:	0f 85 69 ff ff ff    	jne    3310 <register_console+0x90>
    33a7:	41 0f b7 46 40       	movzwl 0x40(%r14),%eax
    33ac:	89 c1                	mov    %eax,%ecx
    33ae:	83 c9 04             	or     $0x4,%ecx
    33b1:	66 41 89 4e 40       	mov    %cx,0x40(%r14)
    33b6:	49 83 7e 20 00       	cmpq   $0x0,0x20(%r14)
    33bb:	0f 84 4f ff ff ff    	je     3310 <register_console+0x90>
    33c1:	83 c8 06             	or     $0x6,%eax
    33c4:	66 41 89 46 40       	mov    %ax,0x40(%r14)
    33c9:	c7 04 25 00 00 00 00 	movl   $0x0,0x0
    33d0:	00 00 00 00 
    33d4:	e9 37 ff ff ff       	jmpq   3310 <register_console+0x90>
    33d9:	41 0f bf 56 42       	movswl 0x42(%r14),%edx
    33de:	48 c7 c7 00 00 00 00 	mov    $0x0,%rdi
    33e5:	31 c0                	xor    %eax,%eax
    33e7:	4c 89 f6             	mov    %r14,%rsi
    33ea:	e8 00 00 00 00       	callq  33ef <register_console+0x16f>
    33ef:	e9 07 02 00 00       	jmpq   35fb <register_console+0x37b>
    33f4:	0f b7 43 10          	movzwl 0x10(%rbx),%eax
    33f8:	66 41 89 46 42       	mov    %ax,0x42(%r14)
    33fd:	49 8b 46 30          	mov    0x30(%r14),%rax
    3401:	48 85 c0             	test   %rax,%rax
    3404:	74 0d                	je     3413 <register_console+0x193>
    3406:	48 8b 73 18          	mov    0x18(%rbx),%rsi
    340a:	4c 89 f7             	mov    %r14,%rdi
    340d:	ff d0                	callq  *%rax
    340f:	85 c0                	test   %eax,%eax
    3411:	75 29                	jne    343c <register_console+0x1bc>
    3413:	41 0f b7 46 40       	movzwl 0x40(%r14),%eax
    3418:	89 c1                	mov    %eax,%ecx
    341a:	83 c9 04             	or     $0x4,%ecx
    341d:	66 41 89 4e 40       	mov    %cx,0x40(%r14)
    3422:	44 39 24 25 00 00 00 	cmp    %r12d,0x0
    3429:	00 
    342a:	75 10                	jne    343c <register_console+0x1bc>
    342c:	83 c8 06             	or     $0x6,%eax
    342f:	66 41 89 46 40       	mov    %ax,0x40(%r14)
    3434:	44 89 24 25 00 00 00 	mov    %r12d,0x0
    343b:	00 
    343c:	41 0f bf 46 40       	movswl 0x40(%r14),%eax
    3441:	a8 04                	test   $0x4,%al
    3443:	0f 84 b2 01 00 00    	je     35fb <register_console+0x37b>
    3449:	4d 85 ff             	test   %r15,%r15
    344c:	74 14                	je     3462 <register_console+0x1e2>
    344e:	89 c1                	mov    %eax,%ecx
    3450:	83 e1 0a             	and    $0xa,%ecx
    3453:	83 f9 02             	cmp    $0x2,%ecx
    3456:	75 0a                	jne    3462 <register_console+0x1e2>
    3458:	25 fe ff 00 00       	and    $0xfffe,%eax
    345d:	66 41 89 46 40       	mov    %ax,0x40(%r14)
    3462:	e8 00 00 00 00       	callq  3467 <register_console+0x1e7>
    3467:	48 c7 c7 00 00 00 00 	mov    $0x0,%rdi
    346e:	e8 00 00 00 00       	callq  3473 <register_console+0x1f3>
    3473:	8a 04 25 00 00 00 00 	mov    0x0,%al
    347a:	84 c0                	test   %al,%al
    347c:	75 10                	jne    348e <register_console+0x20e>
    347e:	c6 04 25 00 00 00 00 	movb   $0x1,0x0
    3485:	01 
    3486:	c6 04 25 00 00 00 00 	movb   $0x1,0x0
    348d:	01 
    348e:	48 8b 04 25 00 00 00 	mov    0x0,%rax
    3495:	00 
    3496:	41 f6 46 40 02       	testb  $0x2,0x40(%r14)
    349b:	75 13                	jne    34b0 <register_console+0x230>
    349d:	48 85 c0             	test   %rax,%rax
    34a0:	74 0e                	je     34b0 <register_console+0x230>
    34a2:	48 8b 48 50          	mov    0x50(%rax),%rcx
    34a6:	49 89 4e 50          	mov    %rcx,0x50(%r14)
    34aa:	4c 89 70 50          	mov    %r14,0x50(%rax)
    34ae:	eb 15                	jmp    34c5 <register_console+0x245>
    34b0:	48 85 c0             	test   %rax,%rax
    34b3:	49 89 46 50          	mov    %rax,0x50(%r14)
    34b7:	4c 89 34 25 00 00 00 	mov    %r14,0x0
    34be:	00 
    34bf:	74 04                	je     34c5 <register_console+0x245>
    34c1:	80 60 40 fd          	andb   $0xfd,0x40(%rax)
    34c5:	41 0f b7 46 40       	movzwl 0x40(%r14),%eax
    34ca:	a8 40                	test   $0x40,%al
    34cc:	74 28                	je     34f6 <register_console+0x276>
    34ce:	8b 0c 25 00 00 00 00 	mov    0x0,%ecx
    34d5:	8d 51 01             	lea    0x1(%rcx),%edx
    34d8:	89 14 25 00 00 00 00 	mov    %edx,0x0
    34df:	85 c9                	test   %ecx,%ecx
    34e1:	75 13                	jne    34f6 <register_console+0x276>
    34e3:	48 c7 c7 00 00 00 00 	mov    $0x0,%rdi
    34ea:	31 c0                	xor    %eax,%eax
    34ec:	e8 00 00 00 00       	callq  34f1 <register_console+0x271>
    34f1:	66 41 8b 46 40       	mov    0x40(%r14),%ax
    34f6:	a8 01                	test   $0x1,%al
    34f8:	74 4f                	je     3549 <register_console+0x2c9>
    34fa:	48 c7 c7 00 00 00 00 	mov    $0x0,%rdi
    3501:	e8 00 00 00 00       	callq  3506 <register_console+0x286>
    3506:	48 8b 0c 25 00 00 00 	mov    0x0,%rcx
    350d:	00 
    350e:	48 89 0c 25 00 00 00 	mov    %rcx,0x0
    3515:	00 
    3516:	8b 0c 25 00 00 00 00 	mov    0x0,%ecx
    351d:	89 0c 25 00 00 00 00 	mov    %ecx,0x0
    3524:	8b 0c 25 00 00 00 00 	mov    0x0,%ecx
    352b:	89 0c 25 00 00 00 00 	mov    %ecx,0x0
    3532:	48 c7 c7 00 00 00 00 	mov    $0x0,%rdi
    3539:	48 89 c6             	mov    %rax,%rsi
    353c:	e8 00 00 00 00       	callq  3541 <register_console+0x2c1>
    3541:	4c 89 34 25 00 00 00 	mov    %r14,0x0
    3548:	00 
    3549:	e8 00 00 00 00       	callq  354e <register_console+0x2ce>
    354e:	e8 00 00 00 00       	callq  3553 <register_console+0x2d3>
    3553:	41 0f b7 46 40       	movzwl 0x40(%r14),%eax
    3558:	48 c7 c1 00 00 00 00 	mov    $0x0,%rcx
    355f:	48 c7 c6 00 00 00 00 	mov    $0x0,%rsi
    3566:	a8 08                	test   $0x8,%al
    3568:	48 0f 45 f1          	cmovne %rcx,%rsi
    356c:	41 0f bf 4e 42       	movswl 0x42(%r14),%ecx
    3571:	48 c7 c7 00 00 00 00 	mov    $0x0,%rdi
    3578:	31 c0                	xor    %eax,%eax
    357a:	4c 89 f2             	mov    %r14,%rdx
    357d:	e8 00 00 00 00       	callq  3582 <register_console+0x302>
    3582:	4d 85 ff             	test   %r15,%r15
    3585:	74 74                	je     35fb <register_console+0x37b>
    3587:	8a 04 25 00 00 00 00 	mov    0x0,%al
    358e:	84 c0                	test   %al,%al
    3590:	75 69                	jne    35fb <register_console+0x37b>
    3592:	41 0f b7 46 40       	movzwl 0x40(%r14),%eax
    3597:	83 e0 0a             	and    $0xa,%eax
    359a:	0f b7 c0             	movzwl %ax,%eax
    359d:	83 f8 02             	cmp    $0x2,%eax
    35a0:	75 59                	jne    35fb <register_console+0x37b>
    35a2:	48 8b 1c 25 00 00 00 	mov    0x0,%rbx
    35a9:	00 
    35aa:	48 85 db             	test   %rbx,%rbx
    35ad:	75 1a                	jne    35c9 <register_console+0x349>
    35af:	eb 4a                	jmp    35fb <register_console+0x37b>
    35b1:	0f 1f 44 00 00       	nopl   0x0(%rax,%rax,1)
    35b6:	66 2e 0f 1f 84 00 00 	nopw   %cs:0x0(%rax,%rax,1)
    35bd:	00 00 00 
    35c0:	48 8b 5b 50          	mov    0x50(%rbx),%rbx
    35c4:	48 85 db             	test   %rbx,%rbx
    35c7:	74 32                	je     35fb <register_console+0x37b>
    35c9:	f6 43 40 08          	testb  $0x8,0x40(%rbx)
    35cd:	74 f1                	je     35c0 <register_console+0x340>
    35cf:	48 89 df             	mov    %rbx,%rdi
    35d2:	e8 00 00 00 00       	callq  35d7 <register_console+0x357>
    35d7:	eb e7                	jmp    35c0 <register_console+0x340>
    35d9:	45 0f bf 46 42       	movswl 0x42(%r14),%r8d
    35de:	48 c7 c7 00 00 00 00 	mov    $0x0,%rdi
    35e5:	be 14 0a 00 00       	mov    $0xa14,%esi
    35ea:	48 c7 c2 00 00 00 00 	mov    $0x0,%rdx
    35f1:	31 c0                	xor    %eax,%eax
    35f3:	4c 89 f1             	mov    %r14,%rcx
    35f6:	e8 00 00 00 00       	callq  35fb <register_console+0x37b>
    35fb:	48 89 ef             	mov    %rbp,%rdi
    35fe:	e8 00 00 00 00       	callq  3603 <register_console+0x383>
    3603:	48 ff 45 08          	incq   0x8(%rbp)
    3607:	48 ff 4d 08          	decq   0x8(%rbp)
    360b:	90                   	nop
    360c:	90                   	nop
    360d:	90                   	nop
    360e:	90                   	nop
    360f:	5b                   	pop    %rbx
    3610:	41 5c                	pop    %r12
    3612:	41 5e                	pop    %r14
    3614:	41 5f                	pop    %r15
    3616:	5d                   	pop    %rbp
    3617:	c3                   	retq   
    3618:	0f 1f 84 00 00 00 00 	nopl   0x0(%rax,%rax,1)
    361f:	00 

0000000000003620 <unregister_console>:
    3620:	55                   	push   %rbp
    3621:	48 89 e5             	mov    %rsp,%rbp
    3624:	41 56                	push   %r14
    3626:	53                   	push   %rbx
    3627:	48 89 fb             	mov    %rdi,%rbx
    362a:	0f b7 43 40          	movzwl 0x40(%rbx),%eax
    362e:	48 c7 c1 00 00 00 00 	mov    $0x0,%rcx
    3635:	48 c7 c6 00 00 00 00 	mov    $0x0,%rsi
    363c:	a8 08                	test   $0x8,%al
    363e:	48 0f 45 f1          	cmovne %rcx,%rsi
    3642:	0f bf 4b 42          	movswl 0x42(%rbx),%ecx
    3646:	48 c7 c7 00 00 00 00 	mov    $0x0,%rdi
    364d:	31 c0                	xor    %eax,%eax
    364f:	48 89 da             	mov    %rbx,%rdx
    3652:	e8 00 00 00 00       	callq  3657 <unregister_console+0x37>
    3657:	e8 00 00 00 00       	callq  365c <unregister_console+0x3c>
    365c:	48 c7 c7 00 00 00 00 	mov    $0x0,%rdi
    3663:	e8 00 00 00 00       	callq  3668 <unregister_console+0x48>
    3668:	8a 04 25 00 00 00 00 	mov    0x0,%al
    366f:	84 c0                	test   %al,%al
    3671:	75 10                	jne    3683 <unregister_console+0x63>
    3673:	c6 04 25 00 00 00 00 	movb   $0x1,0x0
    367a:	01 
    367b:	c6 04 25 00 00 00 00 	movb   $0x1,0x0
    3682:	01 
    3683:	48 8b 04 25 00 00 00 	mov    0x0,%rax
    368a:	00 
    368b:	48 39 d8             	cmp    %rbx,%rax
    368e:	74 2b                	je     36bb <unregister_console+0x9b>
    3690:	48 85 c0             	test   %rax,%rax
    3693:	74 49                	je     36de <unregister_console+0xbe>
    3695:	48 89 c2             	mov    %rax,%rdx
    3698:	0f 1f 84 00 00 00 00 	nopl   0x0(%rax,%rax,1)
    369f:	00 
    36a0:	48 89 d1             	mov    %rdx,%rcx
    36a3:	48 8b 51 50          	mov    0x50(%rcx),%rdx
    36a7:	48 85 d2             	test   %rdx,%rdx
    36aa:	74 3a                	je     36e6 <unregister_console+0xc6>
    36ac:	48 39 da             	cmp    %rbx,%rdx
    36af:	75 ef                	jne    36a0 <unregister_console+0x80>
    36b1:	48 8b 53 50          	mov    0x50(%rbx),%rdx
    36b5:	48 89 51 50          	mov    %rdx,0x50(%rcx)
    36b9:	eb 0c                	jmp    36c7 <unregister_console+0xa7>
    36bb:	48 8b 43 50          	mov    0x50(%rbx),%rax
    36bf:	48 89 04 25 00 00 00 	mov    %rax,0x0
    36c6:	00 
    36c7:	45 31 f6             	xor    %r14d,%r14d
    36ca:	f6 43 40 40          	testb  $0x40,0x40(%rbx)
    36ce:	74 1c                	je     36ec <unregister_console+0xcc>
    36d0:	ff 0c 25 00 00 00 00 	decl   0x0
    36d7:	48 85 c0             	test   %rax,%rax
    36da:	75 15                	jne    36f1 <unregister_console+0xd1>
    36dc:	eb 1d                	jmp    36fb <unregister_console+0xdb>
    36de:	41 be 01 00 00 00    	mov    $0x1,%r14d
    36e4:	eb 15                	jmp    36fb <unregister_console+0xdb>
    36e6:	41 be 01 00 00 00    	mov    $0x1,%r14d
    36ec:	48 85 c0             	test   %rax,%rax
    36ef:	74 0a                	je     36fb <unregister_console+0xdb>
    36f1:	f6 43 40 02          	testb  $0x2,0x40(%rbx)
    36f5:	74 04                	je     36fb <unregister_console+0xdb>
    36f7:	80 48 40 02          	orb    $0x2,0x40(%rax)
    36fb:	80 63 40 fb          	andb   $0xfb,0x40(%rbx)
    36ff:	e8 00 00 00 00       	callq  3704 <unregister_console+0xe4>
    3704:	e8 00 00 00 00       	callq  3709 <unregister_console+0xe9>
    3709:	48 89 ef             	mov    %rbp,%rdi
    370c:	e8 00 00 00 00       	callq  3711 <unregister_console+0xf1>
    3711:	48 ff 45 08          	incq   0x8(%rbp)
    3715:	48 ff 4d 08          	decq   0x8(%rbp)
    3719:	90                   	nop
    371a:	90                   	nop
    371b:	90                   	nop
    371c:	90                   	nop
    371d:	44 89 f0             	mov    %r14d,%eax
    3720:	5b                   	pop    %rbx
    3721:	41 5e                	pop    %r14
    3723:	5d                   	pop    %rbp
    3724:	c3                   	retq   
    3725:	90                   	nop
    3726:	66 2e 0f 1f 84 00 00 	nopw   %cs:0x0(%rax,%rax,1)
    372d:	00 00 00 

0000000000003730 <printk_deferred>:
    3730:	55                   	push   %rbp
    3731:	48 89 e5             	mov    %rsp,%rbp
    3734:	53                   	push   %rbx
    3735:	48 83 ec 48          	sub    $0x48,%rsp
    3739:	48 89 f8             	mov    %rdi,%rax
    373c:	4c 89 4d d8          	mov    %r9,-0x28(%rbp)
    3740:	4c 89 45 d0          	mov    %r8,-0x30(%rbp)
    3744:	48 89 4d c8          	mov    %rcx,-0x38(%rbp)
    3748:	48 89 55 c0          	mov    %rdx,-0x40(%rbp)
    374c:	48 89 75 b8          	mov    %rsi,-0x48(%rbp)
    3750:	48 8d 4d b0          	lea    -0x50(%rbp),%rcx
    3754:	48 89 4d f0          	mov    %rcx,-0x10(%rbp)
    3758:	48 8d 4d 10          	lea    0x10(%rbp),%rcx
    375c:	48 89 4d e8          	mov    %rcx,-0x18(%rbp)
    3760:	c7 45 e4 30 00 00 00 	movl   $0x30,-0x1c(%rbp)
    3767:	c7 45 e0 08 00 00 00 	movl   $0x8,-0x20(%rbp)
    376e:	4c 8d 4d e0          	lea    -0x20(%rbp),%r9
    3772:	31 ff                	xor    %edi,%edi
    3774:	be fe ff ff ff       	mov    $0xfffffffe,%esi
    3779:	31 d2                	xor    %edx,%edx
    377b:	31 c9                	xor    %ecx,%ecx
    377d:	49 89 c0             	mov    %rax,%r8
    3780:	e8 00 00 00 00       	callq  3785 <printk_deferred+0x55>
    3785:	89 c3                	mov    %eax,%ebx
    3787:	65 83 0c 25 00 00 00 	orl    $0x2,%gs:0x0
    378e:	00 02 
    3790:	48 c7 c7 00 00 00 00 	mov    $0x0,%rdi
    3797:	65 48 03 3c 25 00 00 	add    %gs:0x0,%rdi
    379e:	00 00 
    37a0:	e8 00 00 00 00       	callq  37a5 <printk_deferred+0x75>
    37a5:	89 d8                	mov    %ebx,%eax
    37a7:	48 83 c4 48          	add    $0x48,%rsp
    37ab:	5b                   	pop    %rbx
    37ac:	5d                   	pop    %rbp
    37ad:	c3                   	retq   
    37ae:	66 90                	xchg   %ax,%ax

00000000000037b0 <__printk_ratelimit>:
    37b0:	55                   	push   %rbp
    37b1:	48 89 e5             	mov    %rsp,%rbp
    37b4:	48 89 f8             	mov    %rdi,%rax
    37b7:	48 c7 c7 00 00 00 00 	mov    $0x0,%rdi
    37be:	48 89 c6             	mov    %rax,%rsi
    37c1:	e8 00 00 00 00       	callq  37c6 <__printk_ratelimit+0x16>
    37c6:	5d                   	pop    %rbp
    37c7:	c3                   	retq   
    37c8:	0f 1f 84 00 00 00 00 	nopl   0x0(%rax,%rax,1)
    37cf:	00 

00000000000037d0 <printk_timed_ratelimit>:
    37d0:	55                   	push   %rbp
    37d1:	48 89 e5             	mov    %rsp,%rbp
    37d4:	41 56                	push   %r14
    37d6:	53                   	push   %rbx
    37d7:	49 89 fe             	mov    %rdi,%r14
    37da:	48 8b 1c 25 00 00 00 	mov    0x0,%rbx
    37e1:	00 
    37e2:	49 8b 06             	mov    (%r14),%rax
    37e5:	48 85 c0             	test   %rax,%rax
    37e8:	74 0f                	je     37f9 <printk_timed_ratelimit+0x29>
    37ea:	48 29 c3             	sub    %rax,%rbx
    37ed:	89 f7                	mov    %esi,%edi
    37ef:	e8 00 00 00 00       	callq  37f4 <printk_timed_ratelimit+0x24>
    37f4:	48 39 c3             	cmp    %rax,%rbx
    37f7:	76 0f                	jbe    3808 <printk_timed_ratelimit+0x38>
    37f9:	48 8b 04 25 00 00 00 	mov    0x0,%rax
    3800:	00 
    3801:	49 89 06             	mov    %rax,(%r14)
    3804:	b3 01                	mov    $0x1,%bl
    3806:	eb 02                	jmp    380a <printk_timed_ratelimit+0x3a>
    3808:	31 db                	xor    %ebx,%ebx
    380a:	48 89 ef             	mov    %rbp,%rdi
    380d:	e8 00 00 00 00       	callq  3812 <printk_timed_ratelimit+0x42>
    3812:	48 ff 45 08          	incq   0x8(%rbp)
    3816:	48 ff 4d 08          	decq   0x8(%rbp)
    381a:	90                   	nop
    381b:	90                   	nop
    381c:	90                   	nop
    381d:	90                   	nop
    381e:	89 d8                	mov    %ebx,%eax
    3820:	5b                   	pop    %rbx
    3821:	41 5e                	pop    %r14
    3823:	5d                   	pop    %rbp
    3824:	c3                   	retq   
    3825:	90                   	nop
    3826:	66 2e 0f 1f 84 00 00 	nopw   %cs:0x0(%rax,%rax,1)
    382d:	00 00 00 

0000000000003830 <kmsg_dump_register>:
    3830:	55                   	push   %rbp
    3831:	48 89 e5             	mov    %rsp,%rbp
    3834:	41 56                	push   %r14
    3836:	53                   	push   %rbx
    3837:	48 89 fb             	mov    %rdi,%rbx
    383a:	48 83 7b 10 00       	cmpq   $0x0,0x10(%rbx)
    383f:	74 4e                	je     388f <kmsg_dump_register+0x5f>
    3841:	48 c7 c7 00 00 00 00 	mov    $0x0,%rdi
    3848:	e8 00 00 00 00       	callq  384d <kmsg_dump_register+0x1d>
    384d:	41 be f0 ff ff ff    	mov    $0xfffffff0,%r14d
    3853:	80 7b 1d 00          	cmpb   $0x0,0x1d(%rbx)
    3857:	75 25                	jne    387e <kmsg_dump_register+0x4e>
    3859:	c6 43 1d 01          	movb   $0x1,0x1d(%rbx)
    385d:	48 8b 0c 25 00 00 00 	mov    0x0,%rcx
    3864:	00 
    3865:	48 c7 03 00 00 00 00 	movq   $0x0,(%rbx)
    386c:	48 89 4b 08          	mov    %rcx,0x8(%rbx)
    3870:	48 89 19             	mov    %rbx,(%rcx)
    3873:	48 89 1c 25 00 00 00 	mov    %rbx,0x0
    387a:	00 
    387b:	45 31 f6             	xor    %r14d,%r14d
    387e:	48 c7 c7 00 00 00 00 	mov    $0x0,%rdi
    3885:	48 89 c6             	mov    %rax,%rsi
    3888:	e8 00 00 00 00       	callq  388d <kmsg_dump_register+0x5d>
    388d:	eb 06                	jmp    3895 <kmsg_dump_register+0x65>
    388f:	41 be ea ff ff ff    	mov    $0xffffffea,%r14d
    3895:	48 89 ef             	mov    %rbp,%rdi
    3898:	e8 00 00 00 00       	callq  389d <kmsg_dump_register+0x6d>
    389d:	48 ff 45 08          	incq   0x8(%rbp)
    38a1:	48 ff 4d 08          	decq   0x8(%rbp)
    38a5:	90                   	nop
    38a6:	90                   	nop
    38a7:	90                   	nop
    38a8:	90                   	nop
    38a9:	44 89 f0             	mov    %r14d,%eax
    38ac:	5b                   	pop    %rbx
    38ad:	41 5e                	pop    %r14
    38af:	5d                   	pop    %rbp
    38b0:	c3                   	retq   
    38b1:	0f 1f 44 00 00       	nopl   0x0(%rax,%rax,1)
    38b6:	66 2e 0f 1f 84 00 00 	nopw   %cs:0x0(%rax,%rax,1)
    38bd:	00 00 00 

00000000000038c0 <kmsg_dump_unregister>:
    38c0:	55                   	push   %rbp
    38c1:	48 89 e5             	mov    %rsp,%rbp
    38c4:	53                   	push   %rbx
    38c5:	50                   	push   %rax
    38c6:	48 89 fb             	mov    %rdi,%rbx
    38c9:	48 c7 c7 00 00 00 00 	mov    $0x0,%rdi
    38d0:	e8 00 00 00 00       	callq  38d5 <kmsg_dump_unregister+0x15>
    38d5:	80 7b 1d 00          	cmpb   $0x0,0x1d(%rbx)
    38d9:	74 24                	je     38ff <kmsg_dump_unregister+0x3f>
    38db:	c6 43 1d 00          	movb   $0x0,0x1d(%rbx)
    38df:	48 8b 0b             	mov    (%rbx),%rcx
    38e2:	48 8b 53 08          	mov    0x8(%rbx),%rdx
    38e6:	48 89 51 08          	mov    %rdx,0x8(%rcx)
    38ea:	48 89 0a             	mov    %rcx,(%rdx)
    38ed:	48 b9 00 02 00 00 00 	movabs $0xdead000000000200,%rcx
    38f4:	00 ad de 
    38f7:	48 89 4b 08          	mov    %rcx,0x8(%rbx)
    38fb:	31 db                	xor    %ebx,%ebx
    38fd:	eb 05                	jmp    3904 <kmsg_dump_unregister+0x44>
    38ff:	bb ea ff ff ff       	mov    $0xffffffea,%ebx
    3904:	48 c7 c7 00 00 00 00 	mov    $0x0,%rdi
    390b:	48 89 c6             	mov    %rax,%rsi
    390e:	e8 00 00 00 00       	callq  3913 <kmsg_dump_unregister+0x53>
    3913:	e8 00 00 00 00       	callq  3918 <kmsg_dump_unregister+0x58>
    3918:	48 89 ef             	mov    %rbp,%rdi
    391b:	e8 00 00 00 00       	callq  3920 <kmsg_dump_unregister+0x60>
    3920:	48 ff 45 08          	incq   0x8(%rbp)
    3924:	48 ff 4d 08          	decq   0x8(%rbp)
    3928:	90                   	nop
    3929:	90                   	nop
    392a:	90                   	nop
    392b:	90                   	nop
    392c:	89 d8                	mov    %ebx,%eax
    392e:	48 83 c4 08          	add    $0x8,%rsp
    3932:	5b                   	pop    %rbx
    3933:	5d                   	pop    %rbp
    3934:	c3                   	retq   
    3935:	90                   	nop
    3936:	66 2e 0f 1f 84 00 00 	nopw   %cs:0x0(%rax,%rax,1)
    393d:	00 00 00 

0000000000003940 <kmsg_dump>:
    3940:	55                   	push   %rbp
    3941:	48 89 e5             	mov    %rsp,%rbp
    3944:	41 57                	push   %r15
    3946:	41 56                	push   %r14
    3948:	53                   	push   %rbx
    3949:	50                   	push   %rax
    394a:	41 89 fe             	mov    %edi,%r14d
    394d:	41 83 fe 03          	cmp    $0x3,%r14d
    3951:	72 0f                	jb     3962 <kmsg_dump+0x22>
    3953:	8a 04 25 00 00 00 00 	mov    0x0,%al
    395a:	84 c0                	test   %al,%al
    395c:	0f 84 8c 00 00 00    	je     39ee <kmsg_dump+0xae>
    3962:	48 8b 1c 25 00 00 00 	mov    0x0,%rbx
    3969:	00 
    396a:	49 c7 c7 00 00 00 00 	mov    $0x0,%r15
    3971:	4c 39 fb             	cmp    %r15,%rbx
    3974:	75 12                	jne    3988 <kmsg_dump+0x48>
    3976:	eb 76                	jmp    39ee <kmsg_dump+0xae>
    3978:	0f 1f 84 00 00 00 00 	nopl   0x0(%rax,%rax,1)
    397f:	00 
    3980:	48 8b 1b             	mov    (%rbx),%rbx
    3983:	4c 39 fb             	cmp    %r15,%rbx
    3986:	74 66                	je     39ee <kmsg_dump+0xae>
    3988:	8b 43 18             	mov    0x18(%rbx),%eax
    398b:	85 c0                	test   %eax,%eax
    398d:	74 05                	je     3994 <kmsg_dump+0x54>
    398f:	44 39 f0             	cmp    %r14d,%eax
    3992:	72 ec                	jb     3980 <kmsg_dump+0x40>
    3994:	c6 43 1c 01          	movb   $0x1,0x1c(%rbx)
    3998:	48 c7 c7 00 00 00 00 	mov    $0x0,%rdi
    399f:	e8 00 00 00 00       	callq  39a4 <kmsg_dump+0x64>
    39a4:	48 8b 0c 25 00 00 00 	mov    0x0,%rcx
    39ab:	00 
    39ac:	48 89 4b 28          	mov    %rcx,0x28(%rbx)
    39b0:	8b 0c 25 00 00 00 00 	mov    0x0,%ecx
    39b7:	89 4b 20             	mov    %ecx,0x20(%rbx)
    39ba:	48 8b 0c 25 00 00 00 	mov    0x0,%rcx
    39c1:	00 
    39c2:	48 89 4b 30          	mov    %rcx,0x30(%rbx)
    39c6:	8b 0c 25 00 00 00 00 	mov    0x0,%ecx
    39cd:	89 4b 24             	mov    %ecx,0x24(%rbx)
    39d0:	48 c7 c7 00 00 00 00 	mov    $0x0,%rdi
    39d7:	48 89 c6             	mov    %rax,%rsi
    39da:	e8 00 00 00 00       	callq  39df <kmsg_dump+0x9f>
    39df:	48 89 df             	mov    %rbx,%rdi
    39e2:	44 89 f6             	mov    %r14d,%esi
    39e5:	ff 53 10             	callq  *0x10(%rbx)
    39e8:	c6 43 1c 00          	movb   $0x0,0x1c(%rbx)
    39ec:	eb 92                	jmp    3980 <kmsg_dump+0x40>
    39ee:	48 83 c4 08          	add    $0x8,%rsp
    39f2:	5b                   	pop    %rbx
    39f3:	41 5e                	pop    %r14
    39f5:	41 5f                	pop    %r15
    39f7:	5d                   	pop    %rbp
    39f8:	c3                   	retq   
    39f9:	0f 1f 80 00 00 00 00 	nopl   0x0(%rax)

0000000000003a00 <kmsg_dump_get_line_nolock>:
    3a00:	55                   	push   %rbp
    3a01:	48 89 e5             	mov    %rsp,%rbp
    3a04:	41 56                	push   %r14
    3a06:	53                   	push   %rbx
    3a07:	4d 89 c6             	mov    %r8,%r14
    3a0a:	49 89 c8             	mov    %rcx,%r8
    3a0d:	48 89 d1             	mov    %rdx,%rcx
    3a10:	48 89 fb             	mov    %rdi,%rbx
    3a13:	80 7b 1c 00          	cmpb   $0x0,0x1c(%rbx)
    3a17:	74 68                	je     3a81 <kmsg_dump_get_line_nolock+0x81>
    3a19:	48 8b 7b 28          	mov    0x28(%rbx),%rdi
    3a1d:	48 8b 14 25 00 00 00 	mov    0x0,%rdx
    3a24:	00 
    3a25:	48 39 d7             	cmp    %rdx,%rdi
    3a28:	73 11                	jae    3a3b <kmsg_dump_get_line_nolock+0x3b>
    3a2a:	48 89 53 28          	mov    %rdx,0x28(%rbx)
    3a2e:	8b 3c 25 00 00 00 00 	mov    0x0,%edi
    3a35:	89 7b 20             	mov    %edi,0x20(%rbx)
    3a38:	48 89 d7             	mov    %rdx,%rdi
    3a3b:	48 3b 3c 25 00 00 00 	cmp    0x0,%rdi
    3a42:	00 
    3a43:	73 3c                	jae    3a81 <kmsg_dump_get_line_nolock+0x81>
    3a45:	48 8b 14 25 00 00 00 	mov    0x0,%rdx
    3a4c:	00 
    3a4d:	8b 43 20             	mov    0x20(%rbx),%eax
    3a50:	48 8d 3c 02          	lea    (%rdx,%rax,1),%rdi
    3a54:	66 83 7c 02 08 00    	cmpw   $0x0,0x8(%rdx,%rax,1)
    3a5a:	48 0f 44 fa          	cmove  %rdx,%rdi
    3a5e:	40 0f b6 d6          	movzbl %sil,%edx
    3a62:	31 f6                	xor    %esi,%esi
    3a64:	e8 d7 d8 ff ff       	callq  1340 <msg_print_text>
    3a69:	8b 53 20             	mov    0x20(%rbx),%edx
    3a6c:	48 8b 34 25 00 00 00 	mov    0x0,%rsi
    3a73:	00 
    3a74:	0f b7 4c 16 08       	movzwl 0x8(%rsi,%rdx,1),%ecx
    3a79:	85 c9                	test   %ecx,%ecx
    3a7b:	74 0f                	je     3a8c <kmsg_dump_get_line_nolock+0x8c>
    3a7d:	01 d1                	add    %edx,%ecx
    3a7f:	eb 0f                	jmp    3a90 <kmsg_dump_get_line_nolock+0x90>
    3a81:	31 c0                	xor    %eax,%eax
    3a83:	31 db                	xor    %ebx,%ebx
    3a85:	4d 85 f6             	test   %r14,%r14
    3a88:	75 14                	jne    3a9e <kmsg_dump_get_line_nolock+0x9e>
    3a8a:	eb 15                	jmp    3aa1 <kmsg_dump_get_line_nolock+0xa1>
    3a8c:	0f b7 4e 08          	movzwl 0x8(%rsi),%ecx
    3a90:	89 4b 20             	mov    %ecx,0x20(%rbx)
    3a93:	48 ff 43 28          	incq   0x28(%rbx)
    3a97:	b3 01                	mov    $0x1,%bl
    3a99:	4d 85 f6             	test   %r14,%r14
    3a9c:	74 03                	je     3aa1 <kmsg_dump_get_line_nolock+0xa1>
    3a9e:	49 89 06             	mov    %rax,(%r14)
    3aa1:	48 89 ef             	mov    %rbp,%rdi
    3aa4:	e8 00 00 00 00       	callq  3aa9 <kmsg_dump_get_line_nolock+0xa9>
    3aa9:	48 ff 45 08          	incq   0x8(%rbp)
    3aad:	48 ff 4d 08          	decq   0x8(%rbp)
    3ab1:	90                   	nop
    3ab2:	90                   	nop
    3ab3:	90                   	nop
    3ab4:	90                   	nop
    3ab5:	89 d8                	mov    %ebx,%eax
    3ab7:	5b                   	pop    %rbx
    3ab8:	41 5e                	pop    %r14
    3aba:	5d                   	pop    %rbp
    3abb:	c3                   	retq   
    3abc:	0f 1f 40 00          	nopl   0x0(%rax)

0000000000003ac0 <kmsg_dump_get_line>:
    3ac0:	55                   	push   %rbp
    3ac1:	48 89 e5             	mov    %rsp,%rbp
    3ac4:	41 57                	push   %r15
    3ac6:	41 56                	push   %r14
    3ac8:	41 55                	push   %r13
    3aca:	41 54                	push   %r12
    3acc:	53                   	push   %rbx
    3acd:	50                   	push   %rax
    3ace:	4d 89 c7             	mov    %r8,%r15
    3ad1:	49 89 cc             	mov    %rcx,%r12
    3ad4:	49 89 d5             	mov    %rdx,%r13
    3ad7:	41 89 f6             	mov    %esi,%r14d
    3ada:	48 89 fb             	mov    %rdi,%rbx
    3add:	48 c7 c7 00 00 00 00 	mov    $0x0,%rdi
    3ae4:	e8 00 00 00 00       	callq  3ae9 <kmsg_dump_get_line+0x29>
    3ae9:	48 89 c2             	mov    %rax,%rdx
    3aec:	80 7b 1c 00          	cmpb   $0x0,0x1c(%rbx)
    3af0:	74 72                	je     3b64 <kmsg_dump_get_line+0xa4>
    3af2:	48 8b 4b 28          	mov    0x28(%rbx),%rcx
    3af6:	48 8b 04 25 00 00 00 	mov    0x0,%rax
    3afd:	00 
    3afe:	48 39 c1             	cmp    %rax,%rcx
    3b01:	73 11                	jae    3b14 <kmsg_dump_get_line+0x54>
    3b03:	48 89 43 28          	mov    %rax,0x28(%rbx)
    3b07:	8b 0c 25 00 00 00 00 	mov    0x0,%ecx
    3b0e:	89 4b 20             	mov    %ecx,0x20(%rbx)
    3b11:	48 89 c1             	mov    %rax,%rcx
    3b14:	48 3b 0c 25 00 00 00 	cmp    0x0,%rcx
    3b1b:	00 
    3b1c:	73 46                	jae    3b64 <kmsg_dump_get_line+0xa4>
    3b1e:	48 89 55 d0          	mov    %rdx,-0x30(%rbp)
    3b22:	48 8b 04 25 00 00 00 	mov    0x0,%rax
    3b29:	00 
    3b2a:	8b 4b 20             	mov    0x20(%rbx),%ecx
    3b2d:	48 8d 3c 08          	lea    (%rax,%rcx,1),%rdi
    3b31:	66 83 7c 08 08 00    	cmpw   $0x0,0x8(%rax,%rcx,1)
    3b37:	48 0f 44 f8          	cmove  %rax,%rdi
    3b3b:	41 0f b6 d6          	movzbl %r14b,%edx
    3b3f:	31 f6                	xor    %esi,%esi
    3b41:	4c 89 e9             	mov    %r13,%rcx
    3b44:	4d 89 e0             	mov    %r12,%r8
    3b47:	e8 f4 d7 ff ff       	callq  1340 <msg_print_text>
    3b4c:	8b 53 20             	mov    0x20(%rbx),%edx
    3b4f:	48 8b 34 25 00 00 00 	mov    0x0,%rsi
    3b56:	00 
    3b57:	0f b7 4c 16 08       	movzwl 0x8(%rsi,%rdx,1),%ecx
    3b5c:	85 c9                	test   %ecx,%ecx
    3b5e:	74 0f                	je     3b6f <kmsg_dump_get_line+0xaf>
    3b60:	01 d1                	add    %edx,%ecx
    3b62:	eb 0f                	jmp    3b73 <kmsg_dump_get_line+0xb3>
    3b64:	31 c0                	xor    %eax,%eax
    3b66:	31 db                	xor    %ebx,%ebx
    3b68:	4d 85 ff             	test   %r15,%r15
    3b6b:	75 18                	jne    3b85 <kmsg_dump_get_line+0xc5>
    3b6d:	eb 19                	jmp    3b88 <kmsg_dump_get_line+0xc8>
    3b6f:	0f b7 4e 08          	movzwl 0x8(%rsi),%ecx
    3b73:	48 8b 55 d0          	mov    -0x30(%rbp),%rdx
    3b77:	89 4b 20             	mov    %ecx,0x20(%rbx)
    3b7a:	48 ff 43 28          	incq   0x28(%rbx)
    3b7e:	b3 01                	mov    $0x1,%bl
    3b80:	4d 85 ff             	test   %r15,%r15
    3b83:	74 03                	je     3b88 <kmsg_dump_get_line+0xc8>
    3b85:	49 89 07             	mov    %rax,(%r15)
    3b88:	48 c7 c7 00 00 00 00 	mov    $0x0,%rdi
    3b8f:	48 89 d6             	mov    %rdx,%rsi
    3b92:	e8 00 00 00 00       	callq  3b97 <kmsg_dump_get_line+0xd7>
    3b97:	48 89 ef             	mov    %rbp,%rdi
    3b9a:	e8 00 00 00 00       	callq  3b9f <kmsg_dump_get_line+0xdf>
    3b9f:	48 ff 45 08          	incq   0x8(%rbp)
    3ba3:	48 ff 4d 08          	decq   0x8(%rbp)
    3ba7:	90                   	nop
    3ba8:	90                   	nop
    3ba9:	90                   	nop
    3baa:	90                   	nop
    3bab:	89 d8                	mov    %ebx,%eax
    3bad:	48 83 c4 08          	add    $0x8,%rsp
    3bb1:	5b                   	pop    %rbx
    3bb2:	41 5c                	pop    %r12
    3bb4:	41 5d                	pop    %r13
    3bb6:	41 5e                	pop    %r14
    3bb8:	41 5f                	pop    %r15
    3bba:	5d                   	pop    %rbp
    3bbb:	c3                   	retq   
    3bbc:	0f 1f 40 00          	nopl   0x0(%rax)

0000000000003bc0 <kmsg_dump_get_buffer>:
    3bc0:	55                   	push   %rbp
    3bc1:	48 89 e5             	mov    %rsp,%rbp
    3bc4:	41 57                	push   %r15
    3bc6:	41 56                	push   %r14
    3bc8:	41 55                	push   %r13
    3bca:	41 54                	push   %r12
    3bcc:	53                   	push   %rbx
    3bcd:	48 83 ec 48          	sub    $0x48,%rsp
    3bd1:	4d 89 c4             	mov    %r8,%r12
    3bd4:	48 89 4d c0          	mov    %rcx,-0x40(%rbp)
    3bd8:	48 89 55 98          	mov    %rdx,-0x68(%rbp)
    3bdc:	89 f3                	mov    %esi,%ebx
    3bde:	49 89 fd             	mov    %rdi,%r13
    3be1:	41 80 7d 1c 00       	cmpb   $0x0,0x1c(%r13)
    3be6:	0f 84 06 02 00 00    	je     3df2 <kmsg_dump_get_buffer+0x232>
    3bec:	48 c7 c7 00 00 00 00 	mov    $0x0,%rdi
    3bf3:	e8 00 00 00 00       	callq  3bf8 <kmsg_dump_get_buffer+0x38>
    3bf8:	4d 8b 7d 28          	mov    0x28(%r13),%r15
    3bfc:	48 8b 14 25 00 00 00 	mov    0x0,%rdx
    3c03:	00 
    3c04:	49 39 d7             	cmp    %rdx,%r15
    3c07:	73 12                	jae    3c1b <kmsg_dump_get_buffer+0x5b>
    3c09:	49 89 55 28          	mov    %rdx,0x28(%r13)
    3c0d:	8b 0c 25 00 00 00 00 	mov    0x0,%ecx
    3c14:	41 89 4d 20          	mov    %ecx,0x20(%r13)
    3c18:	49 89 d7             	mov    %rdx,%r15
    3c1b:	4d 3b 7d 30          	cmp    0x30(%r13),%r15
    3c1f:	0f 83 be 01 00 00    	jae    3de3 <kmsg_dump_get_buffer+0x223>
    3c25:	89 5d d0             	mov    %ebx,-0x30(%rbp)
    3c28:	48 89 45 a8          	mov    %rax,-0x58(%rbp)
    3c2c:	4c 89 65 a0          	mov    %r12,-0x60(%rbp)
    3c30:	45 8b 65 20          	mov    0x20(%r13),%r12d
    3c34:	31 f6                	xor    %esi,%esi
    3c36:	48 8b 0c 25 00 00 00 	mov    0x0,%rcx
    3c3d:	00 
    3c3e:	45 31 f6             	xor    %r14d,%r14d
    3c41:	4c 89 6d b8          	mov    %r13,-0x48(%rbp)
    3c45:	90                   	nop
    3c46:	66 2e 0f 1f 84 00 00 	nopw   %cs:0x0(%rax,%rax,1)
    3c4d:	00 00 00 
    3c50:	44 89 e3             	mov    %r12d,%ebx
    3c53:	4c 8d 2c 19          	lea    (%rcx,%rbx,1),%r13
    3c57:	66 83 7c 19 08 00    	cmpw   $0x0,0x8(%rcx,%rbx,1)
    3c5d:	4c 0f 44 e9          	cmove  %rcx,%r13
    3c61:	ba 01 00 00 00       	mov    $0x1,%edx
    3c66:	31 c9                	xor    %ecx,%ecx
    3c68:	45 31 c0             	xor    %r8d,%r8d
    3c6b:	4c 89 ef             	mov    %r13,%rdi
    3c6e:	e8 cd d6 ff ff       	callq  1340 <msg_print_text>
    3c73:	48 8b 0c 25 00 00 00 	mov    0x0,%rcx
    3c7a:	00 
    3c7b:	0f b7 54 19 08       	movzwl 0x8(%rcx,%rbx,1),%edx
    3c80:	85 d2                	test   %edx,%edx
    3c82:	74 0c                	je     3c90 <kmsg_dump_get_buffer+0xd0>
    3c84:	41 01 d4             	add    %edx,%r12d
    3c87:	eb 0c                	jmp    3c95 <kmsg_dump_get_buffer+0xd5>
    3c89:	0f 1f 80 00 00 00 00 	nopl   0x0(%rax)
    3c90:	44 0f b7 61 08       	movzwl 0x8(%rcx),%r12d
    3c95:	49 01 c6             	add    %rax,%r14
    3c98:	49 ff c7             	inc    %r15
    3c9b:	41 0f b6 75 0f       	movzbl 0xf(%r13),%esi
    3ca0:	83 e6 1f             	and    $0x1f,%esi
    3ca3:	4c 8b 6d b8          	mov    -0x48(%rbp),%r13
    3ca7:	49 8b 45 30          	mov    0x30(%r13),%rax
    3cab:	49 39 c7             	cmp    %rax,%r15
    3cae:	72 a0                	jb     3c50 <kmsg_dump_get_buffer+0x90>
    3cb0:	49 8b 55 28          	mov    0x28(%r13),%rdx
    3cb4:	45 8b 7d 20          	mov    0x20(%r13),%r15d
    3cb8:	31 f6                	xor    %esi,%esi
    3cba:	4c 3b 75 c0          	cmp    -0x40(%rbp),%r14
    3cbe:	0f 86 80 00 00 00    	jbe    3d44 <kmsg_dump_get_buffer+0x184>
    3cc4:	48 39 c2             	cmp    %rax,%rdx
    3cc7:	73 7b                	jae    3d44 <kmsg_dump_get_buffer+0x184>
    3cc9:	31 f6                	xor    %esi,%esi
    3ccb:	0f 1f 44 00 00       	nopl   0x0(%rax,%rax,1)
    3cd0:	48 89 55 c8          	mov    %rdx,-0x38(%rbp)
    3cd4:	48 8b 04 25 00 00 00 	mov    0x0,%rax
    3cdb:	00 
    3cdc:	44 89 fb             	mov    %r15d,%ebx
    3cdf:	4c 8d 24 18          	lea    (%rax,%rbx,1),%r12
    3ce3:	66 83 7c 18 08 00    	cmpw   $0x0,0x8(%rax,%rbx,1)
    3ce9:	4c 0f 44 e0          	cmove  %rax,%r12
    3ced:	ba 01 00 00 00       	mov    $0x1,%edx
    3cf2:	31 c9                	xor    %ecx,%ecx
    3cf4:	45 31 c0             	xor    %r8d,%r8d
    3cf7:	4c 89 e7             	mov    %r12,%rdi
    3cfa:	e8 41 d6 ff ff       	callq  1340 <msg_print_text>
    3cff:	49 29 c6             	sub    %rax,%r14
    3d02:	48 8b 04 25 00 00 00 	mov    0x0,%rax
    3d09:	00 
    3d0a:	0f b7 4c 18 08       	movzwl 0x8(%rax,%rbx,1),%ecx
    3d0f:	85 c9                	test   %ecx,%ecx
    3d11:	74 0d                	je     3d20 <kmsg_dump_get_buffer+0x160>
    3d13:	41 01 cf             	add    %ecx,%r15d
    3d16:	eb 0d                	jmp    3d25 <kmsg_dump_get_buffer+0x165>
    3d18:	0f 1f 84 00 00 00 00 	nopl   0x0(%rax,%rax,1)
    3d1f:	00 
    3d20:	44 0f b7 78 08       	movzwl 0x8(%rax),%r15d
    3d25:	48 8b 55 c8          	mov    -0x38(%rbp),%rdx
    3d29:	48 ff c2             	inc    %rdx
    3d2c:	41 0f b6 74 24 0f    	movzbl 0xf(%r12),%esi
    3d32:	83 e6 1f             	and    $0x1f,%esi
    3d35:	49 8b 45 30          	mov    0x30(%r13),%rax
    3d39:	4c 3b 75 c0          	cmp    -0x40(%rbp),%r14
    3d3d:	76 05                	jbe    3d44 <kmsg_dump_get_buffer+0x184>
    3d3f:	48 39 c2             	cmp    %rax,%rdx
    3d42:	72 8c                	jb     3cd0 <kmsg_dump_get_buffer+0x110>
    3d44:	48 39 c2             	cmp    %rax,%rdx
    3d47:	44 89 7d b4          	mov    %r15d,-0x4c(%rbp)
    3d4b:	48 89 55 c8          	mov    %rdx,-0x38(%rbp)
    3d4f:	0f 83 a9 00 00 00    	jae    3dfe <kmsg_dump_get_buffer+0x23e>
    3d55:	48 8b 0c 25 00 00 00 	mov    0x0,%rcx
    3d5c:	00 
    3d5d:	31 db                	xor    %ebx,%ebx
    3d5f:	49 89 d4             	mov    %rdx,%r12
    3d62:	0f b6 55 d0          	movzbl -0x30(%rbp),%edx
    3d66:	89 55 b0             	mov    %edx,-0x50(%rbp)
    3d69:	0f 1f 80 00 00 00 00 	nopl   0x0(%rax)
    3d70:	45 89 fd             	mov    %r15d,%r13d
    3d73:	66 42 83 7c 29 08 00 	cmpw   $0x0,0x8(%rcx,%r13,1)
    3d7a:	4e 8d 34 29          	lea    (%rcx,%r13,1),%r14
    3d7e:	4c 0f 44 f1          	cmove  %rcx,%r14
    3d82:	48 8b 45 98          	mov    -0x68(%rbp),%rax
    3d86:	48 8d 0c 18          	lea    (%rax,%rbx,1),%rcx
    3d8a:	4c 8b 45 c0          	mov    -0x40(%rbp),%r8
    3d8e:	48 89 5d d0          	mov    %rbx,-0x30(%rbp)
    3d92:	49 29 d8             	sub    %rbx,%r8
    3d95:	4c 89 f7             	mov    %r14,%rdi
    3d98:	8b 55 b0             	mov    -0x50(%rbp),%edx
    3d9b:	e8 a0 d5 ff ff       	callq  1340 <msg_print_text>
    3da0:	48 8b 0c 25 00 00 00 	mov    0x0,%rcx
    3da7:	00 
    3da8:	42 0f b7 54 29 08    	movzwl 0x8(%rcx,%r13,1),%edx
    3dae:	85 d2                	test   %edx,%edx
    3db0:	74 0e                	je     3dc0 <kmsg_dump_get_buffer+0x200>
    3db2:	41 01 d7             	add    %edx,%r15d
    3db5:	eb 0e                	jmp    3dc5 <kmsg_dump_get_buffer+0x205>
    3db7:	66 0f 1f 84 00 00 00 	nopw   0x0(%rax,%rax,1)
    3dbe:	00 00 
    3dc0:	44 0f b7 79 08       	movzwl 0x8(%rcx),%r15d
    3dc5:	4c 8b 6d b8          	mov    -0x48(%rbp),%r13
    3dc9:	48 8b 5d d0          	mov    -0x30(%rbp),%rbx
    3dcd:	48 01 c3             	add    %rax,%rbx
    3dd0:	49 ff c4             	inc    %r12
    3dd3:	41 0f b6 76 0f       	movzbl 0xf(%r14),%esi
    3dd8:	83 e6 1f             	and    $0x1f,%esi
    3ddb:	4d 3b 65 30          	cmp    0x30(%r13),%r12
    3ddf:	72 8f                	jb     3d70 <kmsg_dump_get_buffer+0x1b0>
    3de1:	eb 1d                	jmp    3e00 <kmsg_dump_get_buffer+0x240>
    3de3:	48 c7 c7 00 00 00 00 	mov    $0x0,%rdi
    3dea:	48 89 c6             	mov    %rax,%rsi
    3ded:	e8 00 00 00 00       	callq  3df2 <kmsg_dump_get_buffer+0x232>
    3df2:	45 31 f6             	xor    %r14d,%r14d
    3df5:	31 db                	xor    %ebx,%ebx
    3df7:	4d 85 e4             	test   %r12,%r12
    3dfa:	75 2f                	jne    3e2b <kmsg_dump_get_buffer+0x26b>
    3dfc:	eb 31                	jmp    3e2f <kmsg_dump_get_buffer+0x26f>
    3dfe:	31 db                	xor    %ebx,%ebx
    3e00:	48 8b 45 c8          	mov    -0x38(%rbp),%rax
    3e04:	49 89 45 30          	mov    %rax,0x30(%r13)
    3e08:	8b 45 b4             	mov    -0x4c(%rbp),%eax
    3e0b:	41 89 45 24          	mov    %eax,0x24(%r13)
    3e0f:	48 c7 c7 00 00 00 00 	mov    $0x0,%rdi
    3e16:	48 8b 75 a8          	mov    -0x58(%rbp),%rsi
    3e1a:	e8 00 00 00 00       	callq  3e1f <kmsg_dump_get_buffer+0x25f>
    3e1f:	41 b6 01             	mov    $0x1,%r14b
    3e22:	4c 8b 65 a0          	mov    -0x60(%rbp),%r12
    3e26:	4d 85 e4             	test   %r12,%r12
    3e29:	74 04                	je     3e2f <kmsg_dump_get_buffer+0x26f>
    3e2b:	49 89 1c 24          	mov    %rbx,(%r12)
    3e2f:	48 89 ef             	mov    %rbp,%rdi
    3e32:	e8 00 00 00 00       	callq  3e37 <kmsg_dump_get_buffer+0x277>
    3e37:	48 ff 45 08          	incq   0x8(%rbp)
    3e3b:	48 ff 4d 08          	decq   0x8(%rbp)
    3e3f:	90                   	nop
    3e40:	90                   	nop
    3e41:	90                   	nop
    3e42:	90                   	nop
    3e43:	44 89 f0             	mov    %r14d,%eax
    3e46:	48 83 c4 48          	add    $0x48,%rsp
    3e4a:	5b                   	pop    %rbx
    3e4b:	41 5c                	pop    %r12
    3e4d:	41 5d                	pop    %r13
    3e4f:	41 5e                	pop    %r14
    3e51:	41 5f                	pop    %r15
    3e53:	5d                   	pop    %rbp
    3e54:	c3                   	retq   
    3e55:	90                   	nop
    3e56:	66 2e 0f 1f 84 00 00 	nopw   %cs:0x0(%rax,%rax,1)
    3e5d:	00 00 00 

0000000000003e60 <kmsg_dump_rewind_nolock>:
    3e60:	55                   	push   %rbp
    3e61:	48 89 e5             	mov    %rsp,%rbp
    3e64:	48 8b 04 25 00 00 00 	mov    0x0,%rax
    3e6b:	00 
    3e6c:	48 89 47 28          	mov    %rax,0x28(%rdi)
    3e70:	8b 04 25 00 00 00 00 	mov    0x0,%eax
    3e77:	89 47 20             	mov    %eax,0x20(%rdi)
    3e7a:	48 8b 04 25 00 00 00 	mov    0x0,%rax
    3e81:	00 
    3e82:	48 89 47 30          	mov    %rax,0x30(%rdi)
    3e86:	8b 04 25 00 00 00 00 	mov    0x0,%eax
    3e8d:	89 47 24             	mov    %eax,0x24(%rdi)
    3e90:	48 89 ef             	mov    %rbp,%rdi
    3e93:	e8 00 00 00 00       	callq  3e98 <kmsg_dump_rewind_nolock+0x38>
    3e98:	48 ff 45 08          	incq   0x8(%rbp)
    3e9c:	48 ff 4d 08          	decq   0x8(%rbp)
    3ea0:	90                   	nop
    3ea1:	90                   	nop
    3ea2:	90                   	nop
    3ea3:	90                   	nop
    3ea4:	5d                   	pop    %rbp
    3ea5:	c3                   	retq   
    3ea6:	66 2e 0f 1f 84 00 00 	nopw   %cs:0x0(%rax,%rax,1)
    3ead:	00 00 00 

0000000000003eb0 <kmsg_dump_rewind>:
    3eb0:	55                   	push   %rbp
    3eb1:	48 89 e5             	mov    %rsp,%rbp
    3eb4:	53                   	push   %rbx
    3eb5:	50                   	push   %rax
    3eb6:	48 89 fb             	mov    %rdi,%rbx
    3eb9:	48 c7 c7 00 00 00 00 	mov    $0x0,%rdi
    3ec0:	e8 00 00 00 00       	callq  3ec5 <kmsg_dump_rewind+0x15>
    3ec5:	48 8b 0c 25 00 00 00 	mov    0x0,%rcx
    3ecc:	00 
    3ecd:	48 89 4b 28          	mov    %rcx,0x28(%rbx)
    3ed1:	8b 0c 25 00 00 00 00 	mov    0x0,%ecx
    3ed8:	89 4b 20             	mov    %ecx,0x20(%rbx)
    3edb:	48 8b 0c 25 00 00 00 	mov    0x0,%rcx
    3ee2:	00 
    3ee3:	48 89 4b 30          	mov    %rcx,0x30(%rbx)
    3ee7:	8b 0c 25 00 00 00 00 	mov    0x0,%ecx
    3eee:	89 4b 24             	mov    %ecx,0x24(%rbx)
    3ef1:	48 c7 c7 00 00 00 00 	mov    $0x0,%rdi
    3ef8:	48 89 c6             	mov    %rax,%rsi
    3efb:	e8 00 00 00 00       	callq  3f00 <kmsg_dump_rewind+0x50>
    3f00:	48 89 ef             	mov    %rbp,%rdi
    3f03:	e8 00 00 00 00       	callq  3f08 <kmsg_dump_rewind+0x58>
    3f08:	48 ff 45 08          	incq   0x8(%rbp)
    3f0c:	48 ff 4d 08          	decq   0x8(%rbp)
    3f10:	90                   	nop
    3f11:	90                   	nop
    3f12:	90                   	nop
    3f13:	90                   	nop
    3f14:	48 83 c4 08          	add    $0x8,%rsp
    3f18:	5b                   	pop    %rbx
    3f19:	5d                   	pop    %rbp
    3f1a:	c3                   	retq   
    3f1b:	0f 1f 44 00 00       	nopl   0x0(%rax,%rax,1)

0000000000003f20 <dump_stack_print_info>:
    3f20:	55                   	push   %rbp
    3f21:	48 89 e5             	mov    %rsp,%rbp
    3f24:	41 57                	push   %r15
    3f26:	41 56                	push   %r14
    3f28:	41 55                	push   %r13
    3f2a:	41 54                	push   %r12
    3f2c:	53                   	push   %rbx
    3f2d:	50                   	push   %rax
    3f2e:	49 89 fe             	mov    %rdi,%r14
    3f31:	65 8b 04 25 00 00 00 	mov    %gs:0x0,%eax
    3f38:	00 
    3f39:	89 45 d4             	mov    %eax,-0x2c(%rbp)
    3f3c:	65 4c 8b 2c 25 00 00 	mov    %gs:0x0,%r13
    3f43:	00 00 
    3f45:	45 8b a5 00 04 00 00 	mov    0x400(%r13),%r12d
    3f4c:	4c 89 eb             	mov    %r13,%rbx
    3f4f:	48 81 c3 a8 05 00 00 	add    $0x5a8,%rbx
    3f56:	e8 00 00 00 00       	callq  3f5b <dump_stack_print_info+0x3b>
    3f5b:	49 89 c7             	mov    %rax,%r15
    3f5e:	48 c7 c7 00 00 00 00 	mov    $0x0,%rdi
    3f65:	48 c7 c6 00 00 00 00 	mov    $0x0,%rsi
    3f6c:	e8 00 00 00 00       	callq  3f71 <dump_stack_print_info+0x51>
    3f71:	49 89 c2             	mov    %rax,%r10
    3f74:	48 83 ec 08          	sub    $0x8,%rsp
    3f78:	48 c7 c7 00 00 00 00 	mov    $0x0,%rdi
    3f7f:	31 c0                	xor    %eax,%eax
    3f81:	4c 89 f6             	mov    %r14,%rsi
    3f84:	8b 55 d4             	mov    -0x2c(%rbp),%edx
    3f87:	44 89 e1             	mov    %r12d,%ecx
    3f8a:	49 89 d8             	mov    %rbx,%r8
    3f8d:	4d 89 f9             	mov    %r15,%r9
    3f90:	68 00 00 00 00       	pushq  $0x0
    3f95:	41 52                	push   %r10
    3f97:	68 00 00 00 00       	pushq  $0x0
    3f9c:	e8 00 00 00 00       	callq  3fa1 <dump_stack_print_info+0x81>
    3fa1:	48 83 c4 20          	add    $0x20,%rsp
    3fa5:	80 3c 25 00 00 00 00 	cmpb   $0x0,0x0
    3fac:	00 
    3fad:	74 18                	je     3fc7 <dump_stack_print_info+0xa7>
    3faf:	48 c7 c7 00 00 00 00 	mov    $0x0,%rdi
    3fb6:	48 c7 c2 00 00 00 00 	mov    $0x0,%rdx
    3fbd:	31 c0                	xor    %eax,%eax
    3fbf:	4c 89 f6             	mov    %r14,%rsi
    3fc2:	e8 00 00 00 00       	callq  3fc7 <dump_stack_print_info+0xa7>
    3fc7:	4c 89 f7             	mov    %r14,%rdi
    3fca:	4c 89 ee             	mov    %r13,%rsi
    3fcd:	e8 00 00 00 00       	callq  3fd2 <dump_stack_print_info+0xb2>
    3fd2:	48 83 c4 08          	add    $0x8,%rsp
    3fd6:	5b                   	pop    %rbx
    3fd7:	41 5c                	pop    %r12
    3fd9:	41 5d                	pop    %r13
    3fdb:	41 5e                	pop    %r14
    3fdd:	41 5f                	pop    %r15
    3fdf:	5d                   	pop    %rbp
    3fe0:	c3                   	retq   
    3fe1:	0f 1f 44 00 00       	nopl   0x0(%rax,%rax,1)
    3fe6:	66 2e 0f 1f 84 00 00 	nopw   %cs:0x0(%rax,%rax,1)
    3fed:	00 00 00 

0000000000003ff0 <show_regs_print_info>:
    3ff0:	55                   	push   %rbp
    3ff1:	48 89 e5             	mov    %rsp,%rbp
    3ff4:	53                   	push   %rbx
    3ff5:	50                   	push   %rax
    3ff6:	48 89 fb             	mov    %rdi,%rbx
    3ff9:	e8 00 00 00 00       	callq  3ffe <show_regs_print_info+0xe>
    3ffe:	65 48 8b 14 25 00 00 	mov    %gs:0x0,%rdx
    4005:	00 00 
    4007:	65 48 8b 0c 25 00 00 	mov    %gs:0x0,%rcx
    400e:	00 00 
    4010:	48 81 c1 00 c0 ff ff 	add    $0xffffffffffffc000,%rcx
    4017:	4c 8b 42 08          	mov    0x8(%rdx),%r8
    401b:	48 c7 c7 00 00 00 00 	mov    $0x0,%rdi
    4022:	31 c0                	xor    %eax,%eax
    4024:	48 89 de             	mov    %rbx,%rsi
    4027:	e8 00 00 00 00       	callq  402c <show_regs_print_info+0x3c>
    402c:	48 89 ef             	mov    %rbp,%rdi
    402f:	e8 00 00 00 00       	callq  4034 <show_regs_print_info+0x44>
    4034:	48 ff 45 08          	incq   0x8(%rbp)
    4038:	48 ff 4d 08          	decq   0x8(%rbp)
    403c:	90                   	nop
    403d:	90                   	nop
    403e:	90                   	nop
    403f:	90                   	nop
    4040:	48 83 c4 08          	add    $0x8,%rsp
    4044:	5b                   	pop    %rbx
    4045:	5d                   	pop    %rbp
    4046:	c3                   	retq   
    4047:	66 0f 1f 84 00 00 00 	nopw   0x0(%rax,%rax,1)
    404e:	00 00 

0000000000004050 <console_cpu_notify>:
    4050:	55                   	push   %rbp
    4051:	48 89 e5             	mov    %rsp,%rbp
    4054:	48 83 fe 07          	cmp    $0x7,%rsi
    4058:	77 3c                	ja     4096 <console_cpu_notify+0x46>
    405a:	b8 d4 00 00 00       	mov    $0xd4,%eax
    405f:	48 0f a3 f0          	bt     %rsi,%rax
    4063:	73 31                	jae    4096 <console_cpu_notify+0x46>
    4065:	e8 00 00 00 00       	callq  406a <console_cpu_notify+0x1a>
    406a:	48 c7 c7 00 00 00 00 	mov    $0x0,%rdi
    4071:	e8 00 00 00 00       	callq  4076 <console_cpu_notify+0x26>
    4076:	8a 04 25 00 00 00 00 	mov    0x0,%al
    407d:	84 c0                	test   %al,%al
    407f:	75 10                	jne    4091 <console_cpu_notify+0x41>
    4081:	c6 04 25 00 00 00 00 	movb   $0x1,0x0
    4088:	01 
    4089:	c6 04 25 00 00 00 00 	movb   $0x1,0x0
    4090:	01 
    4091:	e8 00 00 00 00       	callq  4096 <console_cpu_notify+0x46>
    4096:	48 89 ef             	mov    %rbp,%rdi
    4099:	e8 00 00 00 00       	callq  409e <console_cpu_notify+0x4e>
    409e:	48 ff 45 08          	incq   0x8(%rbp)
    40a2:	48 ff 4d 08          	decq   0x8(%rbp)
    40a6:	90                   	nop
    40a7:	90                   	nop
    40a8:	90                   	nop
    40a9:	90                   	nop
    40aa:	b8 01 00 00 00       	mov    $0x1,%eax
    40af:	5d                   	pop    %rbp
    40b0:	c3                   	retq   
    40b1:	0f 1f 44 00 00       	nopl   0x0(%rax,%rax,1)
    40b6:	66 2e 0f 1f 84 00 00 	nopw   %cs:0x0(%rax,%rax,1)
    40bd:	00 00 00 

00000000000040c0 <wake_up_klogd_work_func>:
    40c0:	55                   	push   %rbp
    40c1:	48 89 e5             	mov    %rsp,%rbp
    40c4:	53                   	push   %rbx
    40c5:	50                   	push   %rax
    40c6:	31 c9                	xor    %ecx,%ecx
    40c8:	65 8b 04 25 00 00 00 	mov    %gs:0x0,%eax
    40cf:	00 
    40d0:	65 0f b1 0c 25 00 00 	cmpxchg %ecx,%gs:0x0
    40d7:	00 00 
    40d9:	75 f5                	jne    40d0 <wake_up_klogd_work_func+0x10>
    40db:	89 c3                	mov    %eax,%ebx
    40dd:	f6 c3 02             	test   $0x2,%bl
    40e0:	74 42                	je     4124 <wake_up_klogd_work_func+0x64>
    40e2:	48 c7 c7 00 00 00 00 	mov    $0x0,%rdi
    40e9:	e8 00 00 00 00       	callq  40ee <wake_up_klogd_work_func+0x2e>
    40ee:	85 c0                	test   %eax,%eax
    40f0:	75 32                	jne    4124 <wake_up_klogd_work_func+0x64>
    40f2:	80 3c 25 00 00 00 00 	cmpb   $0x1,0x0
    40f9:	01 
    40fa:	75 13                	jne    410f <wake_up_klogd_work_func+0x4f>
    40fc:	48 c7 c7 00 00 00 00 	mov    $0x0,%rdi
    4103:	e8 00 00 00 00       	callq  4108 <wake_up_klogd_work_func+0x48>
    4108:	f6 c3 01             	test   $0x1,%bl
    410b:	75 1c                	jne    4129 <wake_up_klogd_work_func+0x69>
    410d:	eb 32                	jmp    4141 <wake_up_klogd_work_func+0x81>
    410f:	c6 04 25 00 00 00 00 	movb   $0x1,0x0
    4116:	01 
    4117:	c6 04 25 00 00 00 00 	movb   $0x0,0x0
    411e:	00 
    411f:	e8 00 00 00 00       	callq  4124 <wake_up_klogd_work_func+0x64>
    4124:	f6 c3 01             	test   $0x1,%bl
    4127:	74 18                	je     4141 <wake_up_klogd_work_func+0x81>
    4129:	48 c7 c7 00 00 00 00 	mov    $0x0,%rdi
    4130:	be 01 00 00 00       	mov    $0x1,%esi
    4135:	ba 01 00 00 00       	mov    $0x1,%edx
    413a:	31 c9                	xor    %ecx,%ecx
    413c:	e8 00 00 00 00       	callq  4141 <wake_up_klogd_work_func+0x81>
    4141:	48 89 ef             	mov    %rbp,%rdi
    4144:	e8 00 00 00 00       	callq  4149 <wake_up_klogd_work_func+0x89>
    4149:	48 ff 45 08          	incq   0x8(%rbp)
    414d:	48 ff 4d 08          	decq   0x8(%rbp)
    4151:	90                   	nop
    4152:	90                   	nop
    4153:	90                   	nop
    4154:	90                   	nop
    4155:	48 83 c4 08          	add    $0x8,%rsp
    4159:	5b                   	pop    %rbx
    415a:	5d                   	pop    %rbp
    415b:	c3                   	retq   

Disassembly of section .init.text:

0000000000000000 <log_buf_len_setup>:
   0:	55                   	push   %rbp
   1:	48 89 e5             	mov    %rsp,%rbp
   4:	48 83 ec 10          	sub    $0x10,%rsp
   8:	48 89 7d f0          	mov    %rdi,-0x10(%rbp)
   c:	48 8d 75 f0          	lea    -0x10(%rbp),%rsi
  10:	e8 00 00 00 00       	callq  15 <log_buf_len_setup+0x15>
  15:	85 c0                	test   %eax,%eax
  17:	74 30                	je     49 <log_buf_len_setup+0x49>
  19:	89 c0                	mov    %eax,%eax
  1b:	48 ff c8             	dec    %rax
  1e:	48 89 45 f8          	mov    %rax,-0x8(%rbp)
  22:	b9 ff ff ff ff       	mov    $0xffffffff,%ecx
  27:	48 0f bd 4d f8       	bsr    -0x8(%rbp),%rcx
  2c:	ff c1                	inc    %ecx
  2e:	b8 01 00 00 00       	mov    $0x1,%eax
  33:	48 d3 e0             	shl    %cl,%rax
  36:	3b 04 25 00 00 00 00 	cmp    0x0,%eax
  3d:	76 0a                	jbe    49 <log_buf_len_setup+0x49>
  3f:	89 c0                	mov    %eax,%eax
  41:	48 89 04 25 00 00 00 	mov    %rax,0x0
  48:	00 
  49:	48 89 ef             	mov    %rbp,%rdi
  4c:	e8 00 00 00 00       	callq  51 <log_buf_len_setup+0x51>
  51:	48 ff 45 08          	incq   0x8(%rbp)
  55:	48 ff 4d 08          	decq   0x8(%rbp)
  59:	90                   	nop
  5a:	90                   	nop
  5b:	90                   	nop
  5c:	90                   	nop
  5d:	31 c0                	xor    %eax,%eax
  5f:	48 83 c4 10          	add    $0x10,%rsp
  63:	5d                   	pop    %rbp
  64:	c3                   	retq   
  65:	90                   	nop
  66:	66 2e 0f 1f 84 00 00 	nopw   %cs:0x0(%rax,%rax,1)
  6d:	00 00 00 

0000000000000070 <setup_log_buf>:
  70:	55                   	push   %rbp
  71:	48 89 e5             	mov    %rsp,%rbp
  74:	41 57                	push   %r15
  76:	41 56                	push   %r14
  78:	53                   	push   %rbx
  79:	50                   	push   %rax
  7a:	89 fb                	mov    %edi,%ebx
  7c:	48 c7 c0 00 00 00 00 	mov    $0x0,%rax
  83:	48 39 04 25 00 00 00 	cmp    %rax,0x0
  8a:	00 
  8b:	0f 85 a7 01 00 00    	jne    238 <setup_log_buf+0x1c8>
  91:	85 db                	test   %ebx,%ebx
  93:	48 8b 3c 25 00 00 00 	mov    0x0,%rdi
  9a:	00 
  9b:	0f 85 ce 00 00 00    	jne    16f <setup_log_buf+0xff>
  a1:	48 85 ff             	test   %rdi,%rdi
  a4:	0f 85 c5 00 00 00    	jne    16f <setup_log_buf+0xff>
  aa:	4c 8b 34 25 00 00 00 	mov    0x0,%r14
  b1:	00 
  b2:	be 40 00 00 00       	mov    $0x40,%esi
  b7:	4c 89 f7             	mov    %r14,%rdi
  ba:	e8 00 00 00 00       	callq  bf <setup_log_buf+0x4f>
  bf:	83 f8 01             	cmp    $0x1,%eax
  c2:	0f 84 9f 00 00 00    	je     167 <setup_log_buf+0xf7>
  c8:	be 40 00 00 00       	mov    $0x40,%esi
  cd:	4c 89 f7             	mov    %r14,%rdi
  d0:	e8 00 00 00 00       	callq  d5 <setup_log_buf+0x65>
  d5:	41 89 c6             	mov    %eax,%r14d
  d8:	41 c1 e6 0c          	shl    $0xc,%r14d
  dc:	45 8d be 00 f0 ff ff 	lea    -0x1000(%r14),%r15d
  e3:	41 81 ff 01 00 02 00 	cmp    $0x20001,%r15d
  ea:	72 7b                	jb     167 <setup_log_buf+0xf7>
  ec:	48 c7 c7 00 00 00 00 	mov    $0x0,%rdi
  f3:	be 00 10 00 00       	mov    $0x1000,%esi
  f8:	31 c0                	xor    %eax,%eax
  fa:	e8 00 00 00 00       	callq  ff <setup_log_buf+0x8f>
  ff:	48 c7 c7 00 00 00 00 	mov    $0x0,%rdi
 106:	31 c0                	xor    %eax,%eax
 108:	44 89 fe             	mov    %r15d,%esi
 10b:	e8 00 00 00 00       	callq  110 <setup_log_buf+0xa0>
 110:	48 c7 c7 00 00 00 00 	mov    $0x0,%rdi
 117:	be 00 00 04 00       	mov    $0x40000,%esi
 11c:	31 c0                	xor    %eax,%eax
 11e:	e8 00 00 00 00       	callq  123 <setup_log_buf+0xb3>
 123:	41 81 c6 00 f0 03 00 	add    $0x3f000,%r14d
 12a:	74 3b                	je     167 <setup_log_buf+0xf7>
 12c:	44 89 f0             	mov    %r14d,%eax
 12f:	48 ff c8             	dec    %rax
 132:	48 89 45 e0          	mov    %rax,-0x20(%rbp)
 136:	b9 ff ff ff ff       	mov    $0xffffffff,%ecx
 13b:	48 0f bd 4d e0       	bsr    -0x20(%rbp),%rcx
 140:	ff c1                	inc    %ecx
 142:	b8 01 00 00 00       	mov    $0x1,%eax
 147:	48 d3 e0             	shl    %cl,%rax
 14a:	3b 04 25 00 00 00 00 	cmp    0x0,%eax
 151:	76 14                	jbe    167 <setup_log_buf+0xf7>
 153:	89 c7                	mov    %eax,%edi
 155:	48 89 3c 25 00 00 00 	mov    %rdi,0x0
 15c:	00 
 15d:	48 85 ff             	test   %rdi,%rdi
 160:	75 16                	jne    178 <setup_log_buf+0x108>
 162:	e9 d1 00 00 00       	jmpq   238 <setup_log_buf+0x1c8>
 167:	48 8b 3c 25 00 00 00 	mov    0x0,%rdi
 16e:	00 
 16f:	48 85 ff             	test   %rdi,%rdi
 172:	0f 84 c0 00 00 00    	je     238 <setup_log_buf+0x1c8>
 178:	be 04 00 00 00       	mov    $0x4,%esi
 17d:	31 d2                	xor    %edx,%edx
 17f:	31 c9                	xor    %ecx,%ecx
 181:	41 b8 ff ff ff ff    	mov    $0xffffffff,%r8d
 187:	85 db                	test   %ebx,%ebx
 189:	74 07                	je     192 <setup_log_buf+0x122>
 18b:	e8 00 00 00 00       	callq  190 <setup_log_buf+0x120>
 190:	eb 05                	jmp    197 <setup_log_buf+0x127>
 192:	e8 00 00 00 00       	callq  197 <setup_log_buf+0x127>
 197:	49 89 c6             	mov    %rax,%r14
 19a:	4d 85 f6             	test   %r14,%r14
 19d:	0f 84 b4 00 00 00    	je     257 <setup_log_buf+0x1e7>
 1a3:	48 c7 c7 00 00 00 00 	mov    $0x0,%rdi
 1aa:	e8 00 00 00 00       	callq  1af <setup_log_buf+0x13f>
 1af:	49 89 c7             	mov    %rax,%r15
 1b2:	8b 04 25 00 00 00 00 	mov    0x0,%eax
 1b9:	89 04 25 00 00 00 00 	mov    %eax,0x0
 1c0:	4c 89 34 25 00 00 00 	mov    %r14,0x0
 1c7:	00 
 1c8:	48 c7 04 25 00 00 00 	movq   $0x0,0x0
 1cf:	00 00 00 00 00 
 1d4:	bb 00 00 04 00       	mov    $0x40000,%ebx
 1d9:	2b 1c 25 00 00 00 00 	sub    0x0,%ebx
 1e0:	48 c7 c6 00 00 00 00 	mov    $0x0,%rsi
 1e7:	ba 00 00 04 00       	mov    $0x40000,%edx
 1ec:	4c 89 f7             	mov    %r14,%rdi
 1ef:	e8 00 00 00 00       	callq  1f4 <setup_log_buf+0x184>
 1f4:	48 c7 c7 00 00 00 00 	mov    $0x0,%rdi
 1fb:	4c 89 fe             	mov    %r15,%rsi
 1fe:	e8 00 00 00 00       	callq  203 <setup_log_buf+0x193>
 203:	8b 34 25 00 00 00 00 	mov    0x0,%esi
 20a:	48 c7 c7 00 00 00 00 	mov    $0x0,%rdi
 211:	31 c0                	xor    %eax,%eax
 213:	e8 00 00 00 00       	callq  218 <setup_log_buf+0x1a8>
 218:	6b c3 64             	imul   $0x64,%ebx,%eax
 21b:	89 c2                	mov    %eax,%edx
 21d:	c1 fa 1f             	sar    $0x1f,%edx
 220:	c1 ea 0e             	shr    $0xe,%edx
 223:	01 c2                	add    %eax,%edx
 225:	c1 fa 12             	sar    $0x12,%edx
 228:	48 c7 c7 00 00 00 00 	mov    $0x0,%rdi
 22f:	31 c0                	xor    %eax,%eax
 231:	89 de                	mov    %ebx,%esi
 233:	e8 00 00 00 00       	callq  238 <setup_log_buf+0x1c8>
 238:	48 89 ef             	mov    %rbp,%rdi
 23b:	e8 00 00 00 00       	callq  240 <setup_log_buf+0x1d0>
 240:	48 ff 45 08          	incq   0x8(%rbp)
 244:	48 ff 4d 08          	decq   0x8(%rbp)
 248:	90                   	nop
 249:	90                   	nop
 24a:	90                   	nop
 24b:	90                   	nop
 24c:	48 83 c4 08          	add    $0x8,%rsp
 250:	5b                   	pop    %rbx
 251:	41 5e                	pop    %r14
 253:	41 5f                	pop    %r15
 255:	5d                   	pop    %rbp
 256:	c3                   	retq   
 257:	48 8b 34 25 00 00 00 	mov    0x0,%rsi
 25e:	00 
 25f:	48 c7 c7 00 00 00 00 	mov    $0x0,%rdi
 266:	31 c0                	xor    %eax,%eax
 268:	e8 00 00 00 00       	callq  26d <setup_log_buf+0x1fd>
 26d:	eb c9                	jmp    238 <setup_log_buf+0x1c8>
 26f:	90                   	nop

0000000000000270 <ignore_loglevel_setup>:
 270:	55                   	push   %rbp
 271:	48 89 e5             	mov    %rsp,%rbp
 274:	c6 04 25 00 00 00 00 	movb   $0x1,0x0
 27b:	01 
 27c:	48 c7 c7 00 00 00 00 	mov    $0x0,%rdi
 283:	31 c0                	xor    %eax,%eax
 285:	e8 00 00 00 00       	callq  28a <ignore_loglevel_setup+0x1a>
 28a:	48 89 ef             	mov    %rbp,%rdi
 28d:	e8 00 00 00 00       	callq  292 <ignore_loglevel_setup+0x22>
 292:	48 ff 45 08          	incq   0x8(%rbp)
 296:	48 ff 4d 08          	decq   0x8(%rbp)
 29a:	90                   	nop
 29b:	90                   	nop
 29c:	90                   	nop
 29d:	90                   	nop
 29e:	31 c0                	xor    %eax,%eax
 2a0:	5d                   	pop    %rbp
 2a1:	c3                   	retq   
 2a2:	0f 1f 40 00          	nopl   0x0(%rax)
 2a6:	66 2e 0f 1f 84 00 00 	nopw   %cs:0x0(%rax,%rax,1)
 2ad:	00 00 00 

00000000000002b0 <console_setup>:
 2b0:	55                   	push   %rbp
 2b1:	48 89 e5             	mov    %rsp,%rbp
 2b4:	41 56                	push   %r14
 2b6:	53                   	push   %rbx
 2b7:	48 83 ec 20          	sub    $0x20,%rsp
 2bb:	48 89 fb             	mov    %rdi,%rbx
 2be:	8a 03                	mov    (%rbx),%al
 2c0:	04 d0                	add    $0xd0,%al
 2c2:	48 8d 7d d0          	lea    -0x30(%rbp),%rdi
 2c6:	3c 09                	cmp    $0x9,%al
 2c8:	77 17                	ja     2e1 <console_setup+0x31>
 2ca:	48 c7 c6 00 00 00 00 	mov    $0x0,%rsi
 2d1:	e8 00 00 00 00       	callq  2d6 <console_setup+0x26>
 2d6:	48 8d 7d d4          	lea    -0x2c(%rbp),%rdi
 2da:	ba 0f 00 00 00       	mov    $0xf,%edx
 2df:	eb 05                	jmp    2e6 <console_setup+0x36>
 2e1:	ba 13 00 00 00       	mov    $0x13,%edx
 2e6:	48 89 de             	mov    %rbx,%rsi
 2e9:	e8 00 00 00 00       	callq  2ee <console_setup+0x3e>
 2ee:	c6 45 e3 00          	movb   $0x0,-0x1d(%rbp)
 2f2:	be 2c 00 00 00       	mov    $0x2c,%esi
 2f7:	48 89 df             	mov    %rbx,%rdi
 2fa:	e8 00 00 00 00       	callq  2ff <console_setup+0x4f>
 2ff:	48 85 c0             	test   %rax,%rax
 302:	74 0b                	je     30f <console_setup+0x5f>
 304:	49 89 c6             	mov    %rax,%r14
 307:	49 ff c6             	inc    %r14
 30a:	c6 00 00             	movb   $0x0,(%rax)
 30d:	eb 03                	jmp    312 <console_setup+0x62>
 30f:	45 31 f6             	xor    %r14d,%r14d
 312:	8a 45 d0             	mov    -0x30(%rbp),%al
 315:	48 8d 5d d0          	lea    -0x30(%rbp),%rbx
 319:	84 c0                	test   %al,%al
 31b:	75 0e                	jne    32b <console_setup+0x7b>
 31d:	eb 1e                	jmp    33d <console_setup+0x8d>
 31f:	90                   	nop
 320:	0f b6 43 01          	movzbl 0x1(%rbx),%eax
 324:	48 ff c3             	inc    %rbx
 327:	84 c0                	test   %al,%al
 329:	74 12                	je     33d <console_setup+0x8d>
 32b:	3c 2c                	cmp    $0x2c,%al
 32d:	74 0e                	je     33d <console_setup+0x8d>
 32f:	0f b6 c0             	movzbl %al,%eax
 332:	0f b6 80 00 00 00 00 	movzbl 0x0(%rax),%eax
 339:	24 04                	and    $0x4,%al
 33b:	74 e3                	je     320 <console_setup+0x70>
 33d:	31 f6                	xor    %esi,%esi
 33f:	ba 0a 00 00 00       	mov    $0xa,%edx
 344:	48 89 df             	mov    %rbx,%rdi
 347:	e8 00 00 00 00       	callq  34c <console_setup+0x9c>
 34c:	c6 03 00             	movb   $0x0,(%rbx)
 34f:	48 8d 7d d0          	lea    -0x30(%rbp),%rdi
 353:	31 c9                	xor    %ecx,%ecx
 355:	89 c6                	mov    %eax,%esi
 357:	4c 89 f2             	mov    %r14,%rdx
 35a:	e8 00 00 00 00       	callq  35f <console_setup+0xaf>
 35f:	c7 04 25 00 00 00 00 	movl   $0x1,0x0
 366:	01 00 00 00 
 36a:	48 89 ef             	mov    %rbp,%rdi
 36d:	e8 00 00 00 00       	callq  372 <console_setup+0xc2>
 372:	48 ff 45 08          	incq   0x8(%rbp)
 376:	48 ff 4d 08          	decq   0x8(%rbp)
 37a:	90                   	nop
 37b:	90                   	nop
 37c:	90                   	nop
 37d:	90                   	nop
 37e:	b8 01 00 00 00       	mov    $0x1,%eax
 383:	48 83 c4 20          	add    $0x20,%rsp
 387:	5b                   	pop    %rbx
 388:	41 5e                	pop    %r14
 38a:	5d                   	pop    %rbp
 38b:	c3                   	retq   
 38c:	0f 1f 40 00          	nopl   0x0(%rax)

0000000000000390 <console_suspend_disable>:
 390:	55                   	push   %rbp
 391:	48 89 e5             	mov    %rsp,%rbp
 394:	c6 04 25 00 00 00 00 	movb   $0x0,0x0
 39b:	00 
 39c:	48 89 ef             	mov    %rbp,%rdi
 39f:	e8 00 00 00 00       	callq  3a4 <console_suspend_disable+0x14>
 3a4:	48 ff 45 08          	incq   0x8(%rbp)
 3a8:	48 ff 4d 08          	decq   0x8(%rbp)
 3ac:	90                   	nop
 3ad:	90                   	nop
 3ae:	90                   	nop
 3af:	90                   	nop
 3b0:	b8 01 00 00 00       	mov    $0x1,%eax
 3b5:	5d                   	pop    %rbp
 3b6:	c3                   	retq   
 3b7:	66 0f 1f 84 00 00 00 	nopw   0x0(%rax,%rax,1)
 3be:	00 00 

00000000000003c0 <keep_bootcon_setup>:
 3c0:	55                   	push   %rbp
 3c1:	48 89 e5             	mov    %rsp,%rbp
 3c4:	c6 04 25 00 00 00 00 	movb   $0x1,0x0
 3cb:	01 
 3cc:	48 c7 c7 00 00 00 00 	mov    $0x0,%rdi
 3d3:	31 c0                	xor    %eax,%eax
 3d5:	e8 00 00 00 00       	callq  3da <keep_bootcon_setup+0x1a>
 3da:	48 89 ef             	mov    %rbp,%rdi
 3dd:	e8 00 00 00 00       	callq  3e2 <keep_bootcon_setup+0x22>
 3e2:	48 ff 45 08          	incq   0x8(%rbp)
 3e6:	48 ff 4d 08          	decq   0x8(%rbp)
 3ea:	90                   	nop
 3eb:	90                   	nop
 3ec:	90                   	nop
 3ed:	90                   	nop
 3ee:	31 c0                	xor    %eax,%eax
 3f0:	5d                   	pop    %rbp
 3f1:	c3                   	retq   
 3f2:	0f 1f 40 00          	nopl   0x0(%rax)
 3f6:	66 2e 0f 1f 84 00 00 	nopw   %cs:0x0(%rax,%rax,1)
 3fd:	00 00 00 

0000000000000400 <printk_late_init>:
 400:	55                   	push   %rbp
 401:	48 89 e5             	mov    %rsp,%rbp
 404:	53                   	push   %rbx
 405:	50                   	push   %rax
 406:	48 8b 1c 25 00 00 00 	mov    0x0,%rbx
 40d:	00 
 40e:	48 85 db             	test   %rbx,%rbx
 411:	75 16                	jne    429 <printk_late_init+0x29>
 413:	eb 30                	jmp    445 <printk_late_init+0x45>
 415:	90                   	nop
 416:	66 2e 0f 1f 84 00 00 	nopw   %cs:0x0(%rax,%rax,1)
 41d:	00 00 00 
 420:	48 8b 5b 50          	mov    0x50(%rbx),%rbx
 424:	48 85 db             	test   %rbx,%rbx
 427:	74 1c                	je     445 <printk_late_init+0x45>
 429:	0f b6 04 25 00 00 00 	movzbl 0x0,%eax
 430:	00 
 431:	84 c0                	test   %al,%al
 433:	75 eb                	jne    420 <printk_late_init+0x20>
 435:	f6 43 40 08          	testb  $0x8,0x40(%rbx)
 439:	74 e5                	je     420 <printk_late_init+0x20>
 43b:	48 89 df             	mov    %rbx,%rdi
 43e:	e8 00 00 00 00       	callq  443 <printk_late_init+0x43>
 443:	eb db                	jmp    420 <printk_late_init+0x20>
 445:	48 c7 c7 00 00 00 00 	mov    $0x0,%rdi
 44c:	e8 00 00 00 00       	callq  451 <printk_late_init+0x51>
 451:	48 89 ef             	mov    %rbp,%rdi
 454:	e8 00 00 00 00       	callq  459 <printk_late_init+0x59>
 459:	48 ff 45 08          	incq   0x8(%rbp)
 45d:	48 ff 4d 08          	decq   0x8(%rbp)
 461:	90                   	nop
 462:	90                   	nop
 463:	90                   	nop
 464:	90                   	nop
 465:	31 c0                	xor    %eax,%eax
 467:	48 83 c4 08          	add    $0x8,%rsp
 46b:	5b                   	pop    %rbx
 46c:	5d                   	pop    %rbp
 46d:	c3                   	retq   
 46e:	66 90                	xchg   %ax,%ax

0000000000000470 <dump_stack_set_arch_desc>:
 470:	55                   	push   %rbp
 471:	48 89 e5             	mov    %rsp,%rbp
 474:	48 83 ec 50          	sub    $0x50,%rsp
 478:	48 89 f8             	mov    %rdi,%rax
 47b:	4c 89 4d d8          	mov    %r9,-0x28(%rbp)
 47f:	4c 89 45 d0          	mov    %r8,-0x30(%rbp)
 483:	48 89 4d c8          	mov    %rcx,-0x38(%rbp)
 487:	48 89 55 c0          	mov    %rdx,-0x40(%rbp)
 48b:	48 89 75 b8          	mov    %rsi,-0x48(%rbp)
 48f:	48 8d 4d b0          	lea    -0x50(%rbp),%rcx
 493:	48 89 4d f0          	mov    %rcx,-0x10(%rbp)
 497:	48 8d 4d 10          	lea    0x10(%rbp),%rcx
 49b:	48 89 4d e8          	mov    %rcx,-0x18(%rbp)
 49f:	c7 45 e4 30 00 00 00 	movl   $0x30,-0x1c(%rbp)
 4a6:	c7 45 e0 08 00 00 00 	movl   $0x8,-0x20(%rbp)
 4ad:	48 8d 4d e0          	lea    -0x20(%rbp),%rcx
 4b1:	48 c7 c7 00 00 00 00 	mov    $0x0,%rdi
 4b8:	be 80 00 00 00       	mov    $0x80,%esi
 4bd:	48 89 c2             	mov    %rax,%rdx
 4c0:	e8 00 00 00 00       	callq  4c5 <dump_stack_set_arch_desc+0x55>
 4c5:	48 89 ef             	mov    %rbp,%rdi
 4c8:	e8 00 00 00 00       	callq  4cd <dump_stack_set_arch_desc+0x5d>
 4cd:	48 ff 45 08          	incq   0x8(%rbp)
 4d1:	48 ff 4d 08          	decq   0x8(%rbp)
 4d5:	90                   	nop
 4d6:	90                   	nop
 4d7:	90                   	nop
 4d8:	90                   	nop
 4d9:	48 83 c4 50          	add    $0x50,%rsp
 4dd:	5d                   	pop    %rbp
 4de:	c3                   	retq   

Disassembly of section .sched.text:

0000000000000000 <console_conditional_schedule>:
   0:	55                   	push   %rbp
   1:	48 89 e5             	mov    %rsp,%rbp
   4:	80 3c 25 00 00 00 00 	cmpb   $0x1,0x0
   b:	01 
   c:	75 05                	jne    13 <console_conditional_schedule+0x13>
   e:	e8 00 00 00 00       	callq  13 <console_conditional_schedule+0x13>
  13:	48 89 ef             	mov    %rbp,%rdi
  16:	e8 00 00 00 00       	callq  1b <console_conditional_schedule+0x1b>
  1b:	48 ff 45 08          	incq   0x8(%rbp)
  1f:	48 ff 4d 08          	decq   0x8(%rbp)
  23:	90                   	nop
  24:	90                   	nop
  25:	90                   	nop
  26:	90                   	nop
  27:	5d                   	pop    %rbp
  28:	c3                   	retq   
